(lp0
(lp1
(dp2
S'winnings'
p3
(lp4
F-119.76661874031072
aF6.343833100489974
aF19.628525962395543
aF20.0051881700457
aF21.882239427339186
aF42.80869382869287
aF54.12420888682777
aF64.78778920374862
aF76.606485890165
aF222.05229967011223
aF249.3254642421814
asS'end_weight'
p5
F0.6640132456077066
sS'close_match_threshold'
p6
F0.2814546262545552
sS'history_in_matches'
p7
I63
sS'start_weight'
p8
F0.29760368092519707
sS'over_power_threshold'
p9
F2.5442294218658335
sS'over_power_extra'
p10
F0.1552014768138278
sS'close_match_trim'
p11
F0.17504405477805557
saF-93.7942596774252
aa(lp12
(dp13
g3
(lp14
F-119.76661874031072
aF6.343833100489974
aF19.628525962395543
aF20.0051881700457
aF21.882239427339186
aF42.80869382869287
aF54.12420888682777
aF64.78778920374862
aF76.606485890165
aF222.05229967011223
aF249.3254642421814
asg5
F0.6640162335401023
sg6
F0.281451781584538
sg7
I63
sg8
F0.2976041338090163
sg9
F2.5442275549986997
sg10
F0.1552189577094094
sg11
F0.17504345710658864
saF-93.7942596774252
aa(lp15
(dp16
g3
(lp17
F-119.76661874031072
aF6.343833100489974
aF19.628525962395543
aF20.0051881700457
aF21.882239427339186
aF42.80869382869287
aF54.12420888682777
aF64.78778920374862
aF76.606485890165
aF222.05229967011223
aF249.3254642421814
asg5
F0.6640092749621662
sg6
F0.281454710604727
sg7
I63
sg8
F0.2976040903887983
sg9
F2.544225735014263
sg10
F0.15520750889274457
sg11
F0.17504405477805557
saF-93.7942596774252
aa(lp18
(dp19
g3
(lp20
F-119.76661874031072
aF6.343833100489974
aF19.628525962395543
aF20.0051881700457
aF21.882239427339186
aF42.80869382869287
aF54.12420888682777
aF64.78778920374862
aF76.606485890165
aF222.05229967011223
aF249.3254642421814
asg5
F0.6640121642772217
sg6
F0.2814567327732492
sg7
I63
sg8
F0.29760418976636605
sg9
F2.5441849603102504
sg10
F0.15525231088778876
sg11
F0.1750436238622538
saF-93.7942596774252
aa(lp21
(dp22
g3
(lp23
F-119.76661874031072
aF6.343833100489974
aF19.628525962395543
aF20.0051881700457
aF21.882239427339186
aF42.80869382869287
aF54.12420888682777
aF64.78778920374862
aF76.606485890165
aF222.05229967011223
aF249.3254642421814
asg5
F0.6640135423247916
sg6
F0.28145207669550376
sg7
I63
sg8
F0.29760403740883495
sg9
F2.5441778342225048
sg10
F0.1551931599373624
sg11
F0.17504349168568598
saF-93.7942596774252
aa(lp24
(dp25
g3
(lp26
F-119.76661874031072
aF6.343833100489974
aF19.628525962395543
aF20.0051881700457
aF21.882239427339186
aF42.80869382869287
aF54.12420888682777
aF64.78778920374862
aF76.606485890165
aF222.05229967011223
aF249.3254642421814
asg5
F0.6640118701553298
sg6
F0.28145281504998076
sg7
I63
sg8
F0.297604195370858
sg9
F2.544226971038413
sg10
F0.1552273857640159
sg11
F0.175043424121831
saF-93.7942596774252
aa(lp27
(dp28
g3
(lp29
F-119.76661874031072
aF6.343833100489974
aF19.628525962395543
aF20.0051881700457
aF21.882239427339186
aF42.80869382869287
aF54.12420888682777
aF64.78778920374862
aF76.606485890165
aF222.05229967011223
aF249.3254642421814
asg5
F0.6640127542511343
sg6
F0.28145018096148955
sg7
I63
sg8
F0.2976040707657789
sg9
F2.544199152315549
sg10
F0.15520786307011314
sg11
F0.17504374378757995
saF-93.7942596774252
aa(lp30
(dp31
g3
(lp32
F-119.76661874031072
aF6.343833100489974
aF19.628525962395543
aF20.0051881700457
aF21.882239427339186
aF42.80869382869287
aF54.12420888682777
aF64.78778920374862
aF76.606485890165
aF222.05229967011223
aF249.3254642421814
asg5
F0.6640110270059064
sg6
F0.2814527258110579
sg7
I63
sg8
F0.297603993492386
sg9
F2.5441834903365037
sg10
F0.15520213169922853
sg11
F0.17504358314398052
saF-93.7942596774252
aa(lp33
(dp34
g3
(lp35
F-119.76661874031072
aF6.343833100489974
aF19.628525962395543
aF20.0051881700457
aF21.882239427339186
aF42.80869382869287
aF54.12420888682777
aF64.78778920374862
aF76.606485890165
aF222.05229967011223
aF249.3254642421814
asg5
F0.6640102611355683
sg6
F0.2814537217822183
sg7
I63
sg8
F0.29760380345778176
sg9
F2.5441868779827104
sg10
F0.15522041673723913
sg11
F0.17504288667444726
saF-93.7942596774252
aa(lp36
(dp37
g3
(lp38
F-119.76661874031072
aF6.343833100489974
aF19.628525962395543
aF20.0051881700457
aF21.882239427339186
aF42.80869382869287
aF54.12420888682777
aF64.78778920374862
aF76.606485890165
aF222.05229967011223
aF249.3254642421814
asg5
F0.6640092749621662
sg6
F0.28145398462769566
sg7
I63
sg8
F0.29760411628038375
sg9
F2.544222108638663
sg10
F0.15522379363086097
sg11
F0.17504330026810355
saF-93.7942596774252
aa(lp39
(dp40
g3
(lp41
F-119.76661874031072
aF6.343833100489974
aF19.628525962395543
aF20.0051881700457
aF21.882239427339186
aF42.80869382869287
aF54.12420888682777
aF64.78778920374862
aF76.606485890165
aF222.05229967011223
aF249.3254642421814
asg5
F0.6640153407936541
sg6
F0.2814524984347918
sg7
I63
sg8
F0.2976040318627231
sg9
F2.5442121001882376
sg10
F0.1552089232753972
sg11
F0.1750434288493386
saF-93.7942596774252
aa(lp42
(dp43
g3
(lp44
F-119.76661874031072
aF6.343833100489974
aF19.628525962395543
aF20.0051881700457
aF21.882239427339186
aF42.80869382869287
aF54.12420888682777
aF64.78778920374862
aF76.606485890165
aF222.05229967011223
aF249.3254642421814
asg5
F0.6640109425179512
sg6
F0.28145481590809407
sg7
I63
sg8
F0.29760402773232925
sg9
F2.544210403055459
sg10
F0.15521433134240767
sg11
F0.17504371085768825
saF-93.7942596774252
aa(lp45
(dp46
g3
(lp47
F-119.76661874031072
aF6.343833100489974
aF19.628525962395543
aF20.0051881700457
aF21.882239427339186
aF42.80869382869287
aF54.12420888682777
aF64.78778920374862
aF76.606485890165
aF222.05229967011223
aF249.3254642421814
asg5
F0.6640088914502875
sg6
F0.2814527258110579
sg7
I63
sg8
F0.29760402525117396
sg9
F2.544199152315549
sg10
F0.15520759090875372
sg11
F0.17504340776887622
saF-93.7942596774252
aa(lp48
(dp49
g3
(lp50
F-119.76661874031072
aF6.343833100489974
aF19.628525962395543
aF20.0051881700457
aF21.882239427339186
aF42.80869382869287
aF54.12420888682777
aF64.78778920374862
aF76.606485890165
aF222.05229967011223
aF249.3254642421814
asg5
F0.6640112450021322
sg6
F0.28145257106237503
sg7
I63
sg8
F0.29760411031101597
sg9
F2.5442234004072994
sg10
F0.15519473638017384
sg11
F0.17504362062484058
saF-93.7942596774252
aa(lp51
(dp52
g3
(lp53
F-119.76661874031072
aF6.343833100489974
aF19.628525962395543
aF20.0051881700457
aF21.882239427339186
aF42.80869382869287
aF54.12420888682777
aF64.78778920374862
aF76.606485890165
aF222.05229967011223
aF249.3254642421814
asg5
F0.6640137392711172
sg6
F0.28145053092432476
sg7
I63
sg8
F0.29760400937178
sg9
F2.544199152315549
sg10
F0.1552155832897386
sg11
F0.17504374378757995
saF-93.7942596774252
aa(lp54
(dp55
g3
(lp56
F-119.76661874031072
aF6.343833100489974
aF19.628525962395543
aF20.0051881700457
aF21.882239427339186
aF42.80869382869287
aF54.12420888682777
aF64.78778920374862
aF76.606485890165
aF222.05229967011223
aF249.3254642421814
asg5
F0.6640092749621662
sg6
F0.2814527787361892
sg7
I63
sg8
F0.2976038372087915
sg9
F2.5442226722572068
sg10
F0.1552163697369666
sg11
F0.17504375168311145
saF-93.7942596774252
aa(lp57
(dp58
g3
(lp59
F-119.76661874031072
aF6.343833100489974
aF19.628525962395543
aF20.0051881700457
aF21.882239427339186
aF42.80869382869287
aF54.12420888682777
aF64.78778920374862
aF76.606485890165
aF222.05229967011223
aF249.3254642421814
asg5
F0.6640111452313728
sg6
F0.281454710604727
sg7
I63
sg8
F0.29760405574384297
sg9
F2.5442111526990905
sg10
F0.15522379363086097
sg11
F0.17504344853911075
saF-93.7942596774252
aa(lp60
(dp61
g3
(lp62
F-119.76661874031072
aF6.343833100489974
aF19.628525962395543
aF20.0051881700457
aF21.882239427339186
aF42.80869382869287
aF54.12420888682777
aF64.78778920374862
aF76.606485890165
aF222.05229967011223
aF249.3254642421814
asg5
F0.6640088914502875
sg6
F0.28145504328436016
sg7
I63
sg8
F0.29760402525117396
sg9
F2.544205746598646
sg10
F0.15520600530916467
sg11
F0.17504330823141062
saF-93.7942596774252
aa(lp63
(dp64
g3
(lp65
F-119.76661874031072
aF6.343833100489974
aF19.628525962395543
aF20.0051881700457
aF21.882239427339186
aF42.80869382869287
aF54.12420888682777
aF64.78778920374862
aF76.606485890165
aF222.05229967011223
aF249.3254642421814
asg5
F0.6640092749621662
sg6
F0.2814542763515999
sg7
I63
sg8
F0.2976041282045243
sg9
F2.5442117734416865
sg10
F0.15527378232805183
sg11
F0.17504367273747862
saF-93.7942596774252
aa(lp66
(dp67
g3
(lp68
F-119.76661874031072
aF6.343833100489974
aF19.628525962395543
aF20.0051881700457
aF21.882239427339186
aF42.80869382869287
aF54.12420888682777
aF64.78778920374862
aF76.606485890165
aF222.05229967011223
aF249.3254642421814
asg5
F0.6640135299255354
sg6
F0.28145293131464677
sg7
I63
sg8
F0.2976040716925633
sg9
F2.5442294218658335
sg10
F0.1552014768138278
sg11
F0.17504405477805557
saF-93.7942596774252
aa(lp69
(dp70
g3
(lp71
F-119.76661874031072
aF6.343833100489974
aF19.628525962395543
aF20.0051881700457
aF21.882239427339186
aF42.80869382869287
aF54.12420888682777
aF64.78778920374862
aF76.606485890165
aF222.05229967011223
aF249.3254642421814
asg5
F0.664011426088944
sg6
F0.28145504328436016
sg7
I63
sg8
F0.29760402525117396
sg9
F2.544197243281176
sg10
F0.15525037331371486
sg11
F0.17504330823141062
saF-93.7942596774252
aa(lp72
(dp73
g3
(lp74
F-119.76661874031072
aF6.343833100489974
aF19.628525962395543
aF20.0051881700457
aF21.882239427339186
aF42.80869382869287
aF54.12420888682777
aF64.78778920374862
aF76.606485890165
aF222.05229967011223
aF249.3254642421814
asg5
F0.664014198908662
sg6
F0.2814537763448952
sg7
I63
sg8
F0.29760410750877
sg9
F2.5442201032657508
sg10
F0.15527378232805183
sg11
F0.1750433216813117
saF-93.7942596774252
aa(lp75
(dp76
g3
(lp77
F-119.76661874031072
aF6.343833100489974
aF19.628525962395543
aF20.0051881700457
aF21.882239427339186
aF42.80869382869287
aF54.12420888682777
aF64.78778920374862
aF76.606485890165
aF222.05229967011223
aF249.3254642421814
asg5
F0.6640103926253553
sg6
F0.28145504328436016
sg7
I63
sg8
F0.29760368092519707
sg9
F2.5442187722514062
sg10
F0.15519457234815554
sg11
F0.17504351125410755
saF-93.7942596774252
aa(lp78
(dp79
g3
(lp80
F-119.76661874031072
aF6.343833100489974
aF19.628525962395543
aF20.0051881700457
aF21.882239427339186
aF42.80869382869287
aF54.12420888682777
aF64.78778920374862
aF76.606485890165
aF222.05229967011223
aF249.3254642421814
asg5
F0.6640162335401023
sg6
F0.2814553460493827
sg7
I63
sg8
F0.29760391003799735
sg9
F2.544210403055459
sg10
F0.15523327794261388
sg11
F0.17504361991448802
saF-93.7942596774252
aa(lp81
(dp82
g3
(lp83
F-119.76661874031072
aF6.343833100489974
aF19.628525962395543
aF20.0051881700457
aF21.882239427339186
aF42.80869382869287
aF54.12420888682777
aF64.78778920374862
aF76.606485890165
aF222.05229967011223
aF249.3254642421814
asg5
F0.6640121642772217
sg6
F0.2814552153829437
sg7
I63
sg8
F0.2976038081354893
sg9
F2.5442114686916417
sg10
F0.1552174699814852
sg11
F0.17504338348004733
saF-93.7942596774252
aa(lp84
(dp85
g3
(lp86
F-119.76661874031072
aF6.343833100489974
aF19.628525962395543
aF20.0051881700457
aF21.882239427339186
aF42.80869382869287
aF54.12420888682777
aF64.78778920374862
aF76.606485890165
aF222.05229967011223
aF249.3254642421814
asg5
F0.6640121642772217
sg6
F0.2814573717283009
sg7
I63
sg8
F0.29760418976636605
sg9
F2.544212272276228
sg10
F0.15520213169922853
sg11
F0.17504327927833135
saF-93.7942596774252
aa(lp87
(dp88
g3
(lp89
F-119.76661874031072
aF6.343833100489974
aF19.628525962395543
aF20.0051881700457
aF21.882239427339186
aF42.80869382869287
aF54.12420888682777
aF64.78778920374862
aF76.606485890165
aF222.05229967011223
aF249.3254642421814
asg5
F0.6640138298145232
sg6
F0.28145362246668276
sg7
I63
sg8
F0.29760408132528393
sg9
F2.5441832870931056
sg10
F0.1551931599373624
sg11
F0.17504347876733903
saF-93.7942596774252
aa(lp90
(dp91
g3
(lp92
F-119.76661874031072
aF6.343833100489974
aF19.628525962395543
aF20.0051881700457
aF21.882239427339186
aF42.80869382869287
aF54.12420888682777
aF64.78778920374862
aF76.606485890165
aF222.05229967011223
aF249.3254642421814
asg5
F0.6640109425179512
sg6
F0.28145372979902616
sg7
I63
sg8
F0.29760415123548356
sg9
F2.544210403055459
sg10
F0.15520671507790607
sg11
F0.17504349604139613
saF-93.7942596774252
aa(lp93
(dp94
g3
(lp95
F-119.76661874031072
aF6.343833100489974
aF19.628525962395543
aF20.0051881700457
aF21.882239427339186
aF42.80869382869287
aF54.12420888682777
aF64.78778920374862
aF76.606485890165
aF222.05229967011223
aF249.3254642421814
asg5
F0.6640101509840364
sg6
F0.28145261212292483
sg7
I63
sg8
F0.29760415123548356
sg9
F2.5442109122863776
sg10
F0.1552184075871501
sg11
F0.17504350730634183
saF-93.7942596774252
aa(lp96
(dp97
g3
(lp98
F-119.76661874031072
aF6.343833100489974
aF19.628525962395543
aF20.0051881700457
aF21.882239427339186
aF42.80869382869287
aF54.12420888682777
aF64.78778920374862
aF76.606485890165
aF222.05229967011223
aF249.3254642421814
asg5
F0.6640103505255551
sg6
F0.2814524984347918
sg7
I63
sg8
F0.29760390422917493
sg9
F2.544217144456239
sg10
F0.15521229349222415
sg11
F0.17504374520505764
saF-93.7942596774252
aa(lp99
(dp100
g3
(lp101
F-119.76661874031072
aF6.343833100489974
aF19.628525962395543
aF20.0051881700457
aF21.882239427339186
aF42.80869382869287
aF54.12420888682777
aF64.78778920374862
aF76.606485890165
aF222.05229967011223
aF249.3254642421814
asg5
F0.6640088914502875
sg6
F0.28145504328436016
sg7
I63
sg8
F0.29760418976636605
sg9
F2.544205746598646
sg10
F0.15522664985989393
sg11
F0.17504303698517648
saF-93.7942596774252
aa(lp102
(dp103
g3
(lp104
F-119.76661874031072
aF6.343833100489974
aF19.628525962395543
aF20.0051881700457
aF21.882239427339186
aF42.80869382869287
aF54.12420888682777
aF64.78778920374862
aF76.606485890165
aF222.05229967011223
aF249.3254642421814
asg5
F0.6640104254978021
sg6
F0.28145305903758655
sg7
I63
sg8
F0.2976039160803403
sg9
F2.5442226722572068
sg10
F0.1552169198592259
sg11
F0.1750433133668626
saF-93.7942596774252
aa(lp105
(dp106
g3
(lp107
F-119.76661874031072
aF6.343833100489974
aF19.628525962395543
aF20.0051881700457
aF21.882239427339186
aF42.80869382869287
aF54.12420888682777
aF64.78778920374862
aF76.606485890165
aF222.05229967011223
aF249.3254642421814
asg5
F0.6640162335401023
sg6
F0.2814529384868537
sg7
I63
sg8
F0.29760395176519167
sg9
F2.544221200461604
sg10
F0.15522811363730468
sg11
F0.17504350460403292
saF-93.7942596774252
aa(lp108
(dp109
g3
(lp110
F-119.76661874031072
aF6.343833100489974
aF19.628525962395543
aF20.0051881700457
aF21.882239427339186
aF42.80869382869287
aF54.12420888682777
aF64.78778920374862
aF76.606485890165
aF222.05229967011223
aF249.3254642421814
asg5
F0.6640162335401023
sg6
F0.2814524984347918
sg7
I63
sg8
F0.2976037574031607
sg9
F2.5442275549986997
sg10
F0.1552189577094094
sg11
F0.1750433152310136
saF-93.7942596774252
aa(lp111
(dp112
g3
(lp113
F-119.76661874031072
aF6.343833100489974
aF19.628525962395543
aF20.0051881700457
aF21.882239427339186
aF42.80869382869287
aF54.12420888682777
aF64.78778920374862
aF76.606485890165
aF222.05229967011223
aF249.3254642421814
asg5
F0.6640137392711172
sg6
F0.28145053092432476
sg7
I63
sg8
F0.297603993492386
sg9
F2.5442296920127534
sg10
F0.15522294933199549
sg11
F0.17504350460403292
saF-93.7942596774252
aa(lp114
(dp115
g3
(lp116
F-119.76661874031072
aF6.343833100489974
aF19.628525962395543
aF20.0051881700457
aF21.882239427339186
aF42.80869382869287
aF54.12420888682777
aF64.78778920374862
aF76.606485890165
aF222.05229967011223
aF249.3254642421814
asg5
F0.6640153407936541
sg6
F0.2814524984347918
sg7
I63
sg8
F0.2976041362463865
sg9
F2.544241054215953
sg10
F0.15524135280172452
sg11
F0.17504316421219102
saF-93.7942596774252
aa(lp117
(dp118
g3
(lp119
F-119.76661874031072
aF6.343833100489974
aF19.628525962395543
aF20.0051881700457
aF21.882239427339186
aF42.80869382869287
aF54.12420888682777
aF64.78778920374862
aF76.606485890165
aF222.05229967011223
aF249.3254642421814
asg5
F0.6640162335401023
sg6
F0.28145161999953805
sg7
I63
sg8
F0.29760368092519707
sg9
F2.5442275549986997
sg10
F0.15521821384544732
sg11
F0.1750430619975903
saF-93.7942596774252
aa(lp120
(dp121
g3
(lp122
F-119.76661874031072
aF6.343833100489974
aF19.628525962395543
aF20.0051881700457
aF21.882239427339186
aF42.80869382869287
aF54.12420888682777
aF64.78778920374862
aF76.606485890165
aF222.05229967011223
aF249.3254642421814
asg5
F0.6640134526464501
sg6
F0.2814539374728403
sg7
I63
sg8
F0.2976038372087915
sg9
F2.544212162866832
sg10
F0.1552174699814852
sg11
F0.1750438386785459
saF-93.7942596774252
aa(lp123
(dp124
g3
(lp125
F-119.76661874031072
aF6.343833100489974
aF19.628525962395543
aF20.0051881700457
aF21.882239427339186
aF42.80869382869287
aF54.12420888682777
aF64.78778920374862
aF76.606485890165
aF222.05229967011223
aF249.3254642421814
asg5
F0.6640136302730044
sg6
F0.28145289242432225
sg7
I63
sg8
F0.297603993492386
sg9
F2.544208412072238
sg10
F0.15521056261446564
sg11
F0.17504350730634183
saF-93.7942596774252
aa(lp126
(dp127
g3
(lp128
F-119.76661874031072
aF6.343833100489974
aF19.628525962395543
aF20.0051881700457
aF21.882239427339186
aF42.80869382869287
aF54.12420888682777
aF64.78778920374862
aF76.606485890165
aF222.05229967011223
aF249.3254642421814
asg5
F0.6640103926253553
sg6
F0.28145481590809407
sg7
I63
sg8
F0.29760415123548356
sg9
F2.5442176718289264
sg10
F0.15521550402589962
sg11
F0.17504349604139613
saF-93.7942596774252
aa(lp129
(dp130
g3
(lp131
F-119.76661874031072
aF6.343833100489974
aF19.628525962395543
aF20.0051881700457
aF21.882239427339186
aF42.80869382869287
aF54.12420888682777
aF64.78778920374862
aF76.606485890165
aF222.05229967011223
aF249.3254642421814
asg5
F0.664011576033438
sg6
F0.28145018096148955
sg7
I63
sg8
F0.2976041927437524
sg9
F2.5442217217187535
sg10
F0.15521217894826084
sg11
F0.1750430619975903
saF-93.7942596774252
aa(lp132
(dp133
g3
(lp134
F-119.76661874031072
aF6.343833100489974
aF19.628525962395543
aF20.0051881700457
aF21.882239427339186
aF42.80869382869287
aF54.12420888682777
aF64.78778920374862
aF76.606485890165
aF222.05229967011223
aF249.3254642421814
asg5
F0.6640082267924828
sg6
F0.28145504328436016
sg7
I63
sg8
F0.29760402525117396
sg9
F2.544205746598646
sg10
F0.15519473638017384
sg11
F0.17504309745292895
saF-93.7942596774252
aa(lp135
(dp136
g3
(lp137
F-119.76661874031072
aF6.343833100489974
aF19.628525962395543
aF20.0051881700457
aF21.882239427339186
aF42.80869382869287
aF54.12420888682777
aF64.78778920374862
aF76.606485890165
aF222.05229967011223
aF249.3254642421814
asg5
F0.664011426088944
sg6
F0.28145264368995826
sg7
I63
sg8
F0.29760390422917493
sg9
F2.5442140979223207
sg10
F0.15520821724748174
sg11
F0.1750434126245119
saF-93.7942596774252
aa(lp138
(dp139
g3
(lp140
F-119.76661874031072
aF6.343833100489974
aF19.628525962395543
aF20.0051881700457
aF21.882239427339186
aF42.80869382869287
aF54.12420888682777
aF64.78778920374862
aF76.606485890165
aF222.05229967011223
aF249.3254642421814
asg5
F0.6640109425179512
sg6
F0.28145426064284024
sg7
I63
sg8
F0.29760415123548356
sg9
F2.5441887399637064
sg10
F0.1552204454373336
sg11
F0.17504317042559736
saF-93.7942596774252
aa(lp141
(dp142
g3
(lp143
F-119.76661874031072
aF6.343833100489974
aF19.628525962395543
aF20.0051881700457
aF21.882239427339186
aF42.80869382869287
aF54.12420888682777
aF64.78778920374862
aF76.606485890165
aF222.05229967011223
aF249.3254642421814
asg5
F0.6640104254978021
sg6
F0.281454710604727
sg7
I63
sg8
F0.2976041558256209
sg9
F2.5442275549986997
sg10
F0.15521744732838022
sg11
F0.17504381125848553
saF-93.7942596774252
aa(lp144
(dp145
g3
(lp146
F-119.76661874031072
aF6.343833100489974
aF19.628525962395543
aF20.0051881700457
aF21.882239427339186
aF42.80869382869287
aF54.12420888682777
aF64.78778920374862
aF76.606485890165
aF222.05229967011223
aF249.3254642421814
asg5
F0.664011212706395
sg6
F0.2814556069133869
sg7
I63
sg8
F0.29760418976636605
sg9
F2.5441978118691093
sg10
F0.15525021609397288
sg11
F0.17504303698517648
saF-93.7942596774252
aa(lp147
(dp148
g3
(lp149
F-119.76661874031072
aF6.343833100489974
aF19.628525962395543
aF20.0051881700457
aF21.882239427339186
aF42.80869382869287
aF54.12420888682777
aF64.78778920374862
aF76.606485890165
aF222.05229967011223
aF249.3254642421814
asg5
F0.664011426088944
sg6
F0.28145305903758655
sg7
I63
sg8
F0.29760390422917493
sg9
F2.544217144456239
sg10
F0.1552174699814852
sg11
F0.17504392567398036
saF-93.7942596774252
aa(lp150
(dp151
g3
(lp152
F-119.76661874031072
aF6.343833100489974
aF19.628525962395543
aF20.0051881700457
aF21.882239427339186
aF42.80869382869287
aF54.12420888682777
aF64.78778920374862
aF76.606485890165
aF222.05229967011223
aF249.3254642421814
asg5
F0.6640110073977803
sg6
F0.2814557848821909
sg7
I63
sg8
F0.29760368092519707
sg9
F2.544194913872051
sg10
F0.15522241139291917
sg11
F0.17504381125848553
saF-93.7942596774252
aa(lp153
(dp154
g3
(lp155
F-119.76661874031072
aF6.343833100489974
aF19.628525962395543
aF20.0051881700457
aF21.882239427339186
aF42.80869382869287
aF54.12420888682777
aF64.78778920374862
aF76.606485890165
aF222.05229967011223
aF249.3254642421814
asg5
F0.664011576033438
sg6
F0.28145527066062626
sg7
I63
sg8
F0.29760368092519707
sg9
F2.544201355224999
sg10
F0.15519457234815554
sg11
F0.17504288667444726
saF-93.7942596774252
aa(lp156
(dp157
g3
(lp158
F-119.76661874031072
aF6.343833100489974
aF19.628525962395543
aF20.0051881700457
aF21.882239427339186
aF42.80869382869287
aF54.12420888682777
aF64.78778920374862
aF76.606485890165
aF222.05229967011223
aF249.3254642421814
asg5
F0.664011426088944
sg6
F0.2814537053775864
sg7
I63
sg8
F0.2976041338090163
sg9
F2.5441887399637064
sg10
F0.15525037331371486
sg11
F0.17504317042559736
saF-93.7942596774252
aa(lp159
(dp160
g3
(lp161
F-119.76661874031072
aF6.343833100489974
aF19.628525962395543
aF20.0051881700457
aF21.882239427339186
aF42.80869382869287
aF54.12420888682777
aF64.78778920374862
aF76.606485890165
aF222.05229967011223
aF249.3254642421814
asg5
F0.6640125707133067
sg6
F0.28145401849386775
sg7
I63
sg8
F0.29760415123548356
sg9
F2.5442044216147286
sg10
F0.15527378232805183
sg11
F0.17504317042559736
saF-93.7942596774252
aa(lp162
(dp163
g3
(lp164
F-119.76661874031072
aF6.343833100489974
aF19.628525962395543
aF20.0051881700457
aF21.882239427339186
aF42.80869382869287
aF54.12420888682777
aF64.78778920374862
aF76.606485890165
aF222.05229967011223
aF249.3254642421814
asg5
F0.6640136302730044
sg6
F0.2814552153829437
sg7
I63
sg8
F0.2976038081354893
sg9
F2.54420994038194
sg10
F0.15521056261446564
sg11
F0.17504338348004733
saF-93.7942596774252
aa(lp165
(dp166
g3
(lp167
F-119.76661874031072
aF6.343833100489974
aF19.628525962395543
aF20.0051881700457
aF21.882239427339186
aF42.80869382869287
aF54.12420888682777
aF64.78778920374862
aF76.606485890165
aF222.05229967011223
aF249.3254642421814
asg5
F0.6640162335401023
sg6
F0.2814524984347918
sg7
I63
sg8
F0.29760390422917493
sg9
F2.5442223497274696
sg10
F0.15521229349222415
sg11
F0.17504374520505764
saF-93.7942596774252
aa(lp168
(dp169
g3
(lp170
F-119.76661874031072
aF6.343833100489974
aF19.628525962395543
aF20.0051881700457
aF21.882239427339186
aF42.80869382869287
aF54.12420888682777
aF64.78778920374862
aF76.606485890165
aF222.05229967011223
aF249.3254642421814
asg5
F0.6640101587696158
sg6
F0.28145405116097333
sg7
I63
sg8
F0.29760390422917493
sg9
F2.544217144456239
sg10
F0.1552174699814852
sg11
F0.17504392567398036
saF-93.7942596774252
aa(lp171
(dp172
g3
(lp173
F-119.76661874031072
aF6.343833100489974
aF19.628525962395543
aF20.0051881700457
aF21.882239427339186
aF42.80869382869287
aF54.12420888682777
aF64.78778920374862
aF76.606485890165
aF222.05229967011223
aF249.3254642421814
asg5
F0.6640092749621662
sg6
F0.28145434761621135
sg7
I63
sg8
F0.29760410333459103
sg9
F2.544223921826463
sg10
F0.15521565126180276
sg11
F0.17504330026810355
saF-93.7942596774252
aa(lp174
(dp175
g3
(lp176
F-119.76661874031072
aF6.343833100489974
aF19.628525962395543
aF20.0051881700457
aF21.882239427339186
aF42.80869382869287
aF54.12420888682777
aF64.78778920374862
aF76.606485890165
aF222.05229967011223
aF249.3254642421814
asg5
F0.6640134526464501
sg6
F0.2814532542676077
sg7
I63
sg8
F0.29760411031101597
sg9
F2.544212162866832
sg10
F0.15519473638017384
sg11
F0.17504362062484058
saF-93.7942596774252
aa(lp177
(dp178
g3
(lp179
F-119.76661874031072
aF6.343833100489974
aF19.628525962395543
aF20.0051881700457
aF21.882239427339186
aF42.80869382869287
aF54.12420888682777
aF64.78778920374862
aF76.606485890165
aF222.05229967011223
aF249.3254642421814
asg5
F0.6640098264407135
sg6
F0.28145504328436016
sg7
I63
sg8
F0.29760402525117396
sg9
F2.544201494939911
sg10
F0.15525037331371486
sg11
F0.17504309745292895
saF-93.7942596774252
aa(lp180
(dp181
g3
(lp182
F-260.7092217340776
aF-171.8402754584938
aF-115.45453803383919
aF-105.25435775417986
aF11.6160877087882
aF119.44404347256182
aF140.90978797603998
aF207.22662640979138
aF237.07682600638122
aF314.98612978305164
aF670.072761334482
asg5
F0.6640103926253553
sg6
F0.062419331782215204
sg7
I63
sg8
F0.29760410750877
sg9
F2.5442201032657508
sg10
F0.15527378232805183
sg11
F0.17504349604139613
saF-548.0040352264106
aa(lp183
(dp184
g3
(lp185
F-119.76661874031072
aF6.343833100489974
aF19.628525962395543
aF20.0051881700457
aF21.882239427339186
aF42.80869382869287
aF54.12420888682777
aF64.78778920374862
aF76.606485890165
aF222.05229967011223
aF249.3254642421814
asg5
F0.6640113153607023
sg6
F0.28145053092432476
sg7
I63
sg8
F0.29760400937178
sg9
F2.544205746598646
sg10
F0.15521079429945164
sg11
F0.17504330823141062
saF-93.7942596774252
aa(lp186
(dp187
g3
(lp188
F-119.76661874031072
aF6.343833100489974
aF19.628525962395543
aF20.0051881700457
aF21.882239427339186
aF42.80869382869287
aF54.12420888682777
aF64.78778920374862
aF76.606485890165
aF222.05229967011223
aF249.3254642421814
asg5
F0.6640162335401023
sg6
F0.28145161999953805
sg7
I63
sg8
F0.29760368092519707
sg9
F2.544217144456239
sg10
F0.15521784191346627
sg11
F0.17504349383578532
saF-93.7942596774252
aa(lp189
(dp190
g3
(lp191
F-119.76661874031072
aF6.343833100489974
aF19.628525962395543
aF20.0051881700457
aF21.882239427339186
aF42.80869382869287
aF54.12420888682777
aF64.78778920374862
aF76.606485890165
aF222.05229967011223
aF249.3254642421814
asg5
F0.6640101509840364
sg6
F0.2814542763515999
sg7
I63
sg8
F0.2976041282045243
sg9
F2.5442117734416865
sg10
F0.15527378232805183
sg11
F0.17504367273747862
saF-93.7942596774252
aa(lp192
(dp193
g3
(lp194
F-119.76661874031072
aF6.343833100489974
aF19.628525962395543
aF20.0051881700457
aF21.882239427339186
aF42.80869382869287
aF54.12420888682777
aF64.78778920374862
aF76.606485890165
aF222.05229967011223
aF249.3254642421814
asg5
F0.6640092749621662
sg6
F0.28145466842964106
sg7
I63
sg8
F0.29760368092519707
sg9
F2.544227578440048
sg10
F0.1552044928532862
sg11
F0.17504405477805557
saF-93.7942596774252
aa(lp195
(dp196
g3
(lp197
F-119.76661874031072
aF6.343833100489974
aF19.628525962395543
aF20.0051881700457
aF21.882239427339186
aF42.80869382869287
aF54.12420888682777
aF64.78778920374862
aF76.606485890165
aF222.05229967011223
aF249.3254642421814
asg5
F0.6640162335401023
sg6
F0.28145392224208726
sg7
I63
sg8
F0.29760390713358614
sg9
F2.544217144456239
sg10
F0.15522278571741902
sg11
F0.17504374520505764
saF-93.7942596774252
aa(lp198
(dp199
g3
(lp200
F-119.76661874031072
aF6.343833100489974
aF19.628525962395543
aF20.0051881700457
aF21.882239427339186
aF42.80869382869287
aF54.12420888682777
aF64.78778920374862
aF76.606485890165
aF222.05229967011223
aF249.3254642421814
asg5
F0.6640088914502875
sg6
F0.28145515697249324
sg7
I63
sg8
F0.2976038530881855
sg9
F2.544201355224999
sg10
F0.15520600530916467
sg11
F0.17504288667444726
saF-93.7942596774252
aa(lp201
(dp202
g3
(lp203
F-184.00924689390126
aF-3.821256122750583
aF19.628525962395543
aF20.0051881700457
aF22.9958490294473
aF32.204282249838116
aF59.66216766834964
aF76.606485890165
aF133.15913747901322
aF222.05229967011223
aF249.3254642421814
asg5
F0.6888561597198684
sg6
F0.28145504328436016
sg7
I63
sg8
F0.29760418976636605
sg9
F2.544205746598646
sg10
F0.15525037331371486
sg11
F0.17504310370538692
saF-168.2019770542563
aa(lp204
(dp205
g3
(lp206
F-137.45930072257363
aF-41.94789090202596
aF-30.4799692407355
aF8.05636519178006
aF9.15486892566912
aF15.525393061137947
aF21.882239427339186
aF28.7185619991983
aF76.606485890165
aF240.2963450551224
aF249.3254642421814
asg5
F0.6640110270059064
sg6
F0.28145264368995826
sg7
I63
sg8
F0.29760394886078045
sg9
F2.544198794129412
sg10
F0.12725035788817582
sg11
F0.17504349788424622
saF-209.8871608653351
aa(lp207
(dp208
g3
(lp209
F-119.76661874031072
aF6.343833100489974
aF19.628525962395543
aF20.0051881700457
aF21.882239427339186
aF42.80869382869287
aF54.12420888682777
aF64.78778920374862
aF76.606485890165
aF222.05229967011223
aF249.3254642421814
asg5
F0.6640126279517335
sg6
F0.28145305903758655
sg7
I63
sg8
F0.29760390422917493
sg9
F2.5441832870931056
sg10
F0.1551931599373624
sg11
F0.17504392567398036
saF-93.7942596774252
aa(lp210
(dp211
g3
(lp212
F-162.81917573472538
aF-103.09482111940872
aF-53.88556367294734
aF-44.01303626997037
aF-34.12860751540916
aF-33.92774489390547
aF6.476979536475824
aF65.7316729013753
aF77.71481356129175
aF227.40747364144227
aF399.2015100002593
asg5
F0.6640134526464501
sg6
F0.28145343439374354
sg7
I63
sg8
F0.2976038372087915
sg9
F3.0060890624058008
sg10
F0.1552174699814852
sg11
F0.1750438386785459
saF-319.79956052708144
aa(lp213
(dp214
g3
(lp215
F-119.76661874031072
aF6.343833100489974
aF19.628525962395543
aF20.0051881700457
aF21.882239427339186
aF42.80869382869287
aF54.12420888682777
aF64.78778920374862
aF76.606485890165
aF222.05229967011223
aF249.3254642421814
asg5
F0.6640134526464501
sg6
F0.2814539374728403
sg7
I63
sg8
F0.29760395445067744
sg9
F2.544212162866832
sg10
F0.1552094733976565
sg11
F0.17504405477805557
saF-93.7942596774252
aa(lp216
(dp217
g3
(lp218
F-119.76661874031072
aF6.343833100489974
aF19.628525962395543
aF20.0051881700457
aF21.882239427339186
aF42.80869382869287
aF54.12420888682777
aF64.78778920374862
aF76.606485890165
aF222.05229967011223
aF249.3254642421814
asg5
F0.6640153407936541
sg6
F0.28145269542955703
sg7
I63
sg8
F0.2976040318627231
sg9
F2.5442102561302375
sg10
F0.15521056261446564
sg11
F0.17504346807784021
saF-93.7942596774252
aa(lp219
(dp220
g3
(lp221
F-119.76661874031072
aF6.343833100489974
aF19.628525962395543
aF20.0051881700457
aF21.882239427339186
aF42.80869382869287
aF54.12420888682777
aF64.78778920374862
aF76.606485890165
aF222.05229967011223
aF249.3254642421814
asg5
F0.6640104254978021
sg6
F0.28145434761621135
sg7
I63
sg8
F0.2976041558256209
sg9
F2.544222108638663
sg10
F0.15521744732838022
sg11
F0.17504355576329456
saF-93.7942596774252
aa(lp222
(dp223
g3
(lp224
F-119.76661874031072
aF6.343833100489974
aF19.628525962395543
aF20.0051881700457
aF21.882239427339186
aF42.80869382869287
aF54.12420888682777
aF64.78778920374862
aF76.606485890165
aF222.05229967011223
aF249.3254642421814
asg5
F0.6640121642772217
sg6
F0.2814553460493827
sg7
I63
sg8
F0.2976040499021817
sg9
F2.5441849603102504
sg10
F0.15523327794261388
sg11
F0.1750436238622538
saF-93.7942596774252
aa(lp225
(dp226
g3
(lp227
F-119.76661874031072
aF6.343833100489974
aF19.628525962395543
aF20.0051881700457
aF21.882239427339186
aF42.80869382869287
aF54.12420888682777
aF64.78778920374862
aF76.606485890165
aF222.05229967011223
aF249.3254642421814
asg5
F0.664011576033438
sg6
F0.2814553460493827
sg7
I63
sg8
F0.29760368092519707
sg9
F2.544205879140229
sg10
F0.1552139251453847
sg11
F0.17504288667444726
saF-93.7942596774252
aa(lp228
(dp229
g3
(lp230
F-119.76661874031072
aF6.343833100489974
aF19.628525962395543
aF20.0051881700457
aF21.882239427339186
aF42.80869382869287
aF54.12420888682777
aF64.78778920374862
aF76.606485890165
aF222.05229967011223
aF249.3254642421814
asg5
F0.6640137392711172
sg6
F0.28145053092432476
sg7
I63
sg8
F0.297604091629376
sg9
F2.544212272276228
sg10
F0.155212540515612
sg11
F0.17504339194118212
saF-93.7942596774252
aa(lp231
(dp232
g3
(lp233
F-119.76661874031072
aF6.343833100489974
aF19.628525962395543
aF20.0051881700457
aF21.882239427339186
aF42.80869382869287
aF54.12420888682777
aF64.78778920374862
aF76.606485890165
aF222.05229967011223
aF249.3254642421814
asg5
F0.6640121642772217
sg6
F0.2814552153829437
sg7
I63
sg8
F0.2976038081354893
sg9
F2.5442226722572068
sg10
F0.1552163697369666
sg11
F0.17504338348004733
saF-93.7942596774252
aa(lp234
(dp235
g3
(lp236
F-119.76661874031072
aF6.343833100489974
aF19.628525962395543
aF20.0051881700457
aF21.882239427339186
aF42.80869382869287
aF54.12420888682777
aF64.78778920374862
aF76.606485890165
aF222.05229967011223
aF249.3254642421814
asg5
F0.6640121642772217
sg6
F0.2814552153829437
sg7
I63
sg8
F0.29760368092519707
sg9
F2.5442195118451707
sg10
F0.1552174699814852
sg11
F0.17504338348004733
saF-93.7942596774252
aa(lp237
(dp238
g3
(lp239
F-119.76661874031072
aF6.343833100489974
aF19.628525962395543
aF20.0051881700457
aF21.882239427339186
aF42.80869382869287
aF54.12420888682777
aF64.78778920374862
aF76.606485890165
aF222.05229967011223
aF249.3254642421814
asg5
F0.6640112450021322
sg6
F0.28145257106237503
sg7
I63
sg8
F0.29760390422917493
sg9
F2.5442234004072994
sg10
F0.1552061031808295
sg11
F0.17504392567398036
saF-93.7942596774252
aa(lp240
(dp241
g3
(lp242
F-119.76661874031072
aF6.343833100489974
aF19.628525962395543
aF20.0051881700457
aF21.882239427339186
aF42.80869382869287
aF54.12420888682777
aF64.78778920374862
aF76.606485890165
aF222.05229967011223
aF249.3254642421814
asg5
F0.6640121642772217
sg6
F0.28145401521646224
sg7
I63
sg8
F0.297604195370858
sg9
F2.5442192198650275
sg10
F0.1552273857640159
sg11
F0.17504340380093916
saF-93.7942596774252
aa(lp243
(dp244
g3
(lp245
F-119.76661874031072
aF6.343833100489974
aF19.628525962395543
aF20.0051881700457
aF21.882239427339186
aF42.80869382869287
aF54.12420888682777
aF64.78778920374862
aF76.606485890165
aF222.05229967011223
aF249.3254642421814
asg5
F0.6640103505255551
sg6
F0.2814524984347918
sg7
I63
sg8
F0.2976040469977705
sg9
F2.544207478162674
sg10
F0.15523125479309852
sg11
F0.17504339109511707
saF-93.7942596774252
aa(lp246
(dp247
g3
(lp248
F-119.76661874031072
aF6.343833100489974
aF19.628525962395543
aF20.0051881700457
aF21.882239427339186
aF42.80869382869287
aF54.12420888682777
aF64.78778920374862
aF76.606485890165
aF222.05229967011223
aF249.3254642421814
asg5
F0.6640092749621662
sg6
F0.2814534600207791
sg7
I63
sg8
F0.2976040162168496
sg9
F2.5442140979223207
sg10
F0.1552409997877668
sg11
F0.17504354268099526
saF-93.7942596774252
aa(lp249
(dp250
g3
(lp251
F-119.76661874031072
aF6.343833100489974
aF19.628525962395543
aF20.0051881700457
aF21.882239427339186
aF42.80869382869287
aF54.12420888682777
aF64.78778920374862
aF76.606485890165
aF222.05229967011223
aF249.3254642421814
asg5
F0.6640127542511343
sg6
F0.28145053092432476
sg7
I63
sg8
F0.29760400937178
sg9
F2.544199152315549
sg10
F0.15521172317992588
sg11
F0.17504374378757995
saF-93.7942596774252
aa(lp252
(dp253
g3
(lp254
F-119.76661874031072
aF6.343833100489974
aF19.628525962395543
aF20.0051881700457
aF21.882239427339186
aF42.80869382869287
aF54.12420888682777
aF64.78778920374862
aF76.606485890165
aF222.05229967011223
aF249.3254642421814
asg5
F0.6640136302730044
sg6
F0.28145289242432225
sg7
I63
sg8
F0.2976041338090163
sg9
F2.544198576017972
sg10
F0.15525037331371486
sg11
F0.1750433388659696
saF-93.7942596774252
aa(lp255
(dp256
g3
(lp257
F-119.76661874031072
aF6.343833100489974
aF19.628525962395543
aF20.0051881700457
aF21.882239427339186
aF42.80869382869287
aF54.12420888682777
aF64.78778920374862
aF76.606485890165
aF222.05229967011223
aF249.3254642421814
asg5
F0.6640110146066502
sg6
F0.28145147984883934
sg7
I63
sg8
F0.29760395398728523
sg9
F2.544199152315549
sg10
F0.15520786307011314
sg11
F0.1750437477353457
saF-93.7942596774252
aa(lp258
(dp259
g3
(lp260
F-119.76661874031072
aF6.343833100489974
aF19.628525962395543
aF20.0051881700457
aF21.882239427339186
aF42.80869382869287
aF54.12420888682777
aF64.78778920374862
aF76.606485890165
aF222.05229967011223
aF249.3254642421814
asg5
F0.664011212706395
sg6
F0.2814556069133869
sg7
I63
sg8
F0.29760418976636605
sg9
F2.5442017792338776
sg10
F0.1552384329769334
sg11
F0.17504303698517648
saF-93.7942596774252
aa(lp261
(dp262
g3
(lp263
F-119.76661874031072
aF6.343833100489974
aF19.628525962395543
aF20.0051881700457
aF21.882239427339186
aF42.80869382869287
aF54.12420888682777
aF64.78778920374862
aF76.606485890165
aF222.05229967011223
aF249.3254642421814
asg5
F0.6640092749621662
sg6
F0.281454710604727
sg7
I63
sg8
F0.29760412081214094
sg9
F2.5442183236503206
sg10
F0.1552184075871501
sg11
F0.1750437810421987
saF-93.7942596774252
aa(lp264
(dp265
g3
(lp266
F-119.76661874031072
aF6.343833100489974
aF19.628525962395543
aF20.0051881700457
aF21.882239427339186
aF42.80869382869287
aF54.12420888682777
aF64.78778920374862
aF76.606485890165
aF222.05229967011223
aF249.3254642421814
asg5
F0.6640103926253553
sg6
F0.2814545382754672
sg7
I63
sg8
F0.29760415123548356
sg9
F2.5442176718289264
sg10
F0.1552204454373336
sg11
F0.17504317042559736
saF-93.7942596774252
aa(lp267
(dp268
g3
(lp269
F-119.76661874031072
aF6.343833100489974
aF19.628525962395543
aF20.0051881700457
aF21.882239427339186
aF42.80869382869287
aF54.12420888682777
aF64.78778920374862
aF76.606485890165
aF222.05229967011223
aF249.3254642421814
asg5
F0.6640103926253553
sg6
F0.28145281504998076
sg7
I63
sg8
F0.297604195370858
sg9
F2.544226971038413
sg10
F0.1552273857640159
sg11
F0.175043424121831
saF-93.7942596774252
aa(lp270
(dp271
g3
(lp272
F-119.76661874031072
aF6.343833100489974
aF19.628525962395543
aF20.0051881700457
aF21.882239427339186
aF42.80869382869287
aF54.12420888682777
aF64.78778920374862
aF76.606485890165
aF222.05229967011223
aF249.3254642421814
asg5
F0.6640103926253553
sg6
F0.28145421918738844
sg7
I63
sg8
F0.29760411628038375
sg9
F2.5442176718289264
sg10
F0.15520433198163103
sg11
F0.1750434874043676
saF-93.7942596774252
aa(lp273
(dp274
g3
(lp275
F-119.76661874031072
aF6.343833100489974
aF19.628525962395543
aF20.0051881700457
aF21.882239427339186
aF42.80869382869287
aF54.12420888682777
aF64.78778920374862
aF76.606485890165
aF222.05229967011223
aF249.3254642421814
asg5
F0.6640121642772217
sg6
F0.2814573717283009
sg7
I63
sg8
F0.29760415123548356
sg9
F2.5442149720525773
sg10
F0.15520213169922853
sg11
F0.17504338765986374
saF-93.7942596774252
aa(lp276
(dp277
g3
(lp278
F-119.76661874031072
aF6.343833100489974
aF19.628525962395543
aF20.0051881700457
aF21.882239427339186
aF42.80869382869287
aF54.12420888682777
aF64.78778920374862
aF76.606485890165
aF222.05229967011223
aF249.3254642421814
asg5
F0.6640103926253553
sg6
F0.28145481590809407
sg7
I63
sg8
F0.29760415123548356
sg9
F2.544194913872051
sg10
F0.15521550402589962
sg11
F0.17504365364994084
saF-93.7942596774252
aa(lp279
(dp280
g3
(lp281
F-119.76661874031072
aF6.343833100489974
aF19.628525962395543
aF20.0051881700457
aF21.882239427339186
aF42.80869382869287
aF54.12420888682777
aF64.78778920374862
aF76.606485890165
aF222.05229967011223
aF249.3254642421814
asg5
F0.6640103505255551
sg6
F0.2814524984347918
sg7
I63
sg8
F0.2976039973089866
sg9
F2.544221439735251
sg10
F0.15520990119248435
sg11
F0.17504405477805557
saF-93.7942596774252
aa(lp282
(dp283
g3
(lp284
F-119.76661874031072
aF6.343833100489974
aF19.628525962395543
aF20.0051881700457
aF21.882239427339186
aF42.80869382869287
aF54.12420888682777
aF64.78778920374862
aF76.606485890165
aF222.05229967011223
aF249.3254642421814
asg5
F0.6640109425179512
sg6
F0.28145481590809407
sg7
I63
sg8
F0.2976040297975262
sg9
F2.5442121001882376
sg10
F0.15521433134240767
sg11
F0.17504356985351344
saF-93.7942596774252
aa(lp285
(dp286
g3
(lp287
F-119.76661874031072
aF6.343833100489974
aF19.628525962395543
aF20.0051881700457
aF21.882239427339186
aF42.80869382869287
aF54.12420888682777
aF64.78778920374862
aF76.606485890165
aF222.05229967011223
aF249.3254642421814
asg5
F0.664012284665349
sg6
F0.28145207669550376
sg7
I63
sg8
F0.297603993492386
sg9
F2.544180662279504
sg10
F0.1551931599373624
sg11
F0.17504358314398052
saF-93.7942596774252
aa(lp288
(dp289
g3
(lp290
F-119.76661874031072
aF6.343833100489974
aF19.628525962395543
aF20.0051881700457
aF21.882239427339186
aF42.80869382869287
aF54.12420888682777
aF64.78778920374862
aF76.606485890165
aF222.05229967011223
aF249.3254642421814
asg5
F0.6640102599821491
sg6
F0.2814532778450354
sg7
I63
sg8
F0.29760411031101597
sg9
F2.5442234004072994
sg10
F0.1552092650055174
sg11
F0.17504346044647207
saF-93.7942596774252
aa(lp291
(dp292
g3
(lp293
F-119.76661874031072
aF6.343833100489974
aF19.628525962395543
aF20.0051881700457
aF21.882239427339186
aF42.80869382869287
aF54.12420888682777
aF64.78778920374862
aF76.606485890165
aF222.05229967011223
aF249.3254642421814
asg5
F0.6640136847720608
sg6
F0.28145289242432225
sg7
I63
sg8
F0.297603993492386
sg9
F2.544208412072238
sg10
F0.15521675597323056
sg11
F0.17504350595518736
saF-93.7942596774252
aa(lp294
(dp295
g3
(lp296
F-119.76661874031072
aF6.343833100489974
aF19.628525962395543
aF20.0051881700457
aF21.882239427339186
aF42.80869382869287
aF54.12420888682777
aF64.78778920374862
aF76.606485890165
aF222.05229967011223
aF249.3254642421814
asg5
F0.6640102611355683
sg6
F0.28145289242432225
sg7
I63
sg8
F0.29760380345778176
sg9
F2.5441868779827104
sg10
F0.15521548967585239
sg11
F0.17504288667444726
saF-93.7942596774252
aa(lp297
(dp298
g3
(lp299
F-119.76661874031072
aF6.343833100489974
aF19.628525962395543
aF20.0051881700457
aF21.882239427339186
aF42.80869382869287
aF54.12420888682777
aF64.78778920374862
aF76.606485890165
aF222.05229967011223
aF249.3254642421814
asg5
F0.6640132456077066
sg6
F0.28145504328436016
sg7
I63
sg8
F0.29760393534578156
sg9
F2.5442294218658335
sg10
F0.1552014768138278
sg11
F0.17504303698517648
saF-93.7942596774252
aa(lp300
(dp301
g3
(lp302
F-119.76661874031072
aF6.343833100489974
aF19.628525962395543
aF20.0051881700457
aF21.882239427339186
aF42.80869382869287
aF54.12420888682777
aF64.78778920374862
aF76.606485890165
aF222.05229967011223
aF249.3254642421814
asg5
F0.6640148430932762
sg6
F0.28145285952868915
sg7
I63
sg8
F0.2976041338090163
sg9
F2.544212162866832
sg10
F0.1552174699814852
sg11
F0.1750438386785459
saF-93.7942596774252
aa(lp303
(dp304
g3
(lp305
F-119.76661874031072
aF6.343833100489974
aF19.628525962395543
aF20.0051881700457
aF21.882239427339186
aF42.80869382869287
aF54.12420888682777
aF64.78778920374862
aF76.606485890165
aF222.05229967011223
aF249.3254642421814
asg5
F0.6640121642772217
sg6
F0.2814552153829437
sg7
I63
sg8
F0.29760395782212967
sg9
F2.5442201032657508
sg10
F0.1552456261547685
sg11
F0.17504338348004733
saF-93.7942596774252
aa(lp306
(dp307
g3
(lp308
F-119.76661874031072
aF6.343833100489974
aF19.628525962395543
aF20.0051881700457
aF21.882239427339186
aF42.80869382869287
aF54.12420888682777
aF64.78778920374862
aF76.606485890165
aF222.05229967011223
aF249.3254642421814
asg5
F0.6640162335401023
sg6
F0.28145405267408935
sg7
I63
sg8
F0.2976037574031607
sg9
F2.5442126834339045
sg10
F0.15525021609397288
sg11
F0.1750433152310136
saF-93.7942596774252
aa.