(lp0
(lp1
(dp2
S'winnings'
p3
(lp4
F-85.88005476638341
aF-34.15171506492254
aF-32.512512167915816
aF-30.259437993191
aF6.701867453002933
aF15.066001940000888
aF30.962329149954712
aF79.90388473773783
aF214.92125253285826
aF523.6898471793697
asS'end_weight'
p5
F0.7364448869056961
sS'close_match_threshold'
p6
F0.3258404679654306
sS'history_in_matches'
p7
I107
sS'start_weight'
p8
F0.019350775499029145
sS'over_power_threshold'
p9
F1.5646865182297562
sS'over_power_extra'
p10
F0.17272833432626392
sS'close_match_trim'
p11
F0.3455400694478179
saF-152.54428199922177
aa(lp12
(dp13
g3
(lp14
F-85.88005476638341
aF-34.15171506492254
aF-32.512512167915816
aF-30.259437993191
aF6.701867453002933
aF15.066001940000888
aF30.962329149954712
aF79.90388473773783
aF214.92125253285826
aF523.6898471793697
asg5
F0.7365403453211316
sg6
F0.3258404679654306
sg7
I107
sg8
F0.019350775499029145
sg9
F1.5646865182297562
sg10
F0.17272833432626392
sg11
F0.3455400694478179
saF-152.54428199922177
aa(lp15
(dp16
g3
(lp17
F-85.88005476638341
aF-34.15171506492254
aF-32.512512167915816
aF-30.259437993191
aF6.701867453002933
aF30.962329149954712
aF45.82557775636474
aF79.90388473773783
aF214.92125253285826
aF523.6898471793697
asg5
F0.7369635143090061
sg6
F0.3258404679654306
sg7
I122
sg8
F0.0193548355466361
sg9
F1.5646865182297562
sg10
F0.17272833432626392
sg11
F0.3455400694478179
saF-152.54428199922177
aa(lp18
(dp19
g3
(lp20
F-85.88005476638341
aF-34.15171506492254
aF-32.512512167915816
aF-30.259437993191
aF6.701867453002933
aF15.066001940000888
aF30.962329149954712
aF79.90388473773783
aF214.92125253285826
aF523.6898471793697
asg5
F0.7365403453211316
sg6
F0.3258404679654306
sg7
I108
sg8
F0.0193551123717148
sg9
F1.5646865182297562
sg10
F0.17272833432626392
sg11
F0.3455400694478179
saF-152.54428199922177
aa(lp21
(dp22
g3
(lp23
F-85.88005476638341
aF-34.15171506492254
aF-32.512512167915816
aF-30.259437993191
aF6.701867453002933
aF30.962329149954712
aF45.82557775636474
aF79.90388473773783
aF214.92125253285826
aF523.6898471793697
asg5
F0.7368867535816629
sg6
F0.3258404679654306
sg7
I97
sg8
F0.01934988266964294
sg9
F1.5646865182297562
sg10
F0.17272833432626392
sg11
F0.34559560706635584
saF-152.54428199922177
aa(lp24
(dp25
g3
(lp26
F-85.88005476638341
aF-34.15171506492254
aF-32.512512167915816
aF-30.259437993191
aF6.701867453002933
aF30.962329149954712
aF45.82557775636474
aF79.90388473773783
aF214.92125253285826
aF523.6898471793697
asg5
F0.7366732585451952
sg6
F0.3258404679654306
sg7
I99
sg8
F0.01935249498386677
sg9
F1.5646865182297562
sg10
F0.17272833432626392
sg11
F0.3456141196058685
saF-152.54428199922177
aa(lp27
(dp28
g3
(lp29
F-85.88005476638341
aF-34.15171506492254
aF-32.512512167915816
aF-30.259437993191
aF6.701867453002933
aF30.962329149954712
aF45.82557775636474
aF79.90388473773783
aF214.92125253285826
aF523.6898471793697
asg5
F0.7365403453211316
sg6
F0.32568076555659997
sg7
I99
sg8
F0.01934988266964294
sg9
F1.5646865182297562
sg10
F0.17272833432626392
sg11
F0.3455400694478179
saF-152.54428199922177
aa(lp30
(dp31
g3
(lp32
F-85.88005476638341
aF-34.15171506492254
aF-32.512512167915816
aF-30.259437993191
aF6.701867453002933
aF30.962329149954712
aF33.09821070185831
aF45.82557775636474
aF214.92125253285826
aF523.6898471793697
asg5
F0.735735342671515
sg6
F0.32520165833010795
sg7
I99
sg8
F0.019362456721026308
sg9
F1.5646865182297562
sg10
F0.17272833432626392
sg11
F0.3455400694478179
saF-152.54428199922177
aa(lp33
(dp34
g3
(lp35
F-85.88005476638341
aF-34.15171506492254
aF-32.512512167915816
aF-30.259437993191
aF6.701867453002933
aF15.066001940000888
aF30.962329149954712
aF79.90388473773783
aF214.92125253285826
aF523.6898471793697
asg5
F0.7361617777780356
sg6
F0.3258404679654306
sg7
I97
sg8
F0.019353100068564565
sg9
F1.5646865182297562
sg10
F0.17272833432626392
sg11
F0.3455686721552631
saF-152.54428199922177
aa(lp36
(dp37
g3
(lp38
F-85.88005476638341
aF-34.15171506492254
aF-32.512512167915816
aF-30.259437993191
aF6.701867453002933
aF30.962329149954712
aF33.09821070185831
aF45.82557775636474
aF214.92125253285826
aF523.6898471793697
asg5
F0.7364242192426298
sg6
F0.32520165833010795
sg7
I108
sg8
F0.019357439171755215
sg9
F1.5646865182297562
sg10
F0.17272833432626392
sg11
F0.3455053792836861
saF-152.54428199922177
aa(lp39
(dp40
g3
(lp41
F-85.88005476638341
aF-34.15171506492254
aF-32.512512167915816
aF-30.259437993191
aF6.701867453002933
aF30.962329149954712
aF33.09821070185831
aF45.82557775636474
aF214.92125253285826
aF523.6898471793697
asg5
F0.7364242192426298
sg6
F0.32456284869478536
sg7
I113
sg8
F0.01935309551993174
sg9
F1.5646865182297562
sg10
F0.17272833432626392
sg11
F0.34559024927057347
saF-152.54428199922177
aa(lp42
(dp43
g3
(lp44
F-85.88005476638341
aF-34.15171506492254
aF-32.512512167915816
aF-30.259437993191
aF6.701867453002933
aF30.962329149954712
aF33.09821070185831
aF45.82557775636474
aF214.92125253285826
aF523.6898471793697
asg5
F0.7364242192426298
sg6
F0.32520165833010795
sg7
I97
sg8
F0.01935521926443704
sg9
F1.5646865182297562
sg10
F0.17272833432626392
sg11
F0.34559024927057347
saF-152.54428199922177
aa(lp45
(dp46
g3
(lp47
F-85.88005476638341
aF-34.15171506492254
aF-32.512512167915816
aF-30.259437993191
aF6.701867453002933
aF30.962329149954712
aF33.09821070185831
aF45.82557775636474
aF214.92125253285826
aF523.6898471793697
asg5
F0.7364242192426298
sg6
F0.32456284869478536
sg7
I113
sg8
F0.01935097177542644
sg9
F1.5646865182297562
sg10
F0.17272833432626392
sg11
F0.3455794607129183
saF-152.54428199922177
aa(lp48
(dp49
g3
(lp50
F-85.88005476638341
aF-34.15171506492254
aF-32.512512167915816
aF-30.259437993191
aF6.701867453002933
aF15.066001940000888
aF30.962329149954712
aF79.90388473773783
aF214.92125253285826
aF523.6898471793697
asg5
F0.7358101334238842
sg6
F0.3258404679654306
sg7
I97
sg8
F0.01934988266964294
sg9
F1.5646865182297562
sg10
F0.17272833432626392
sg11
F0.3455487419888509
saF-152.54428199922177
aa(lp51
(dp52
g3
(lp53
F-85.88005476638341
aF-34.15171506492254
aF-32.512512167915816
aF-30.259437993191
aF6.701867453002933
aF30.962329149954712
aF45.82557775636474
aF79.90388473773783
aF214.92125253285826
aF523.6898471793697
asg5
F0.7360904203205595
sg6
F0.3255210631477693
sg7
I99
sg8
F0.01935521926443704
sg9
F1.5646865182297562
sg10
F0.17272833432626392
sg11
F0.3455651593591957
saF-152.54428199922177
aa(lp54
(dp55
g3
(lp56
F-85.88005476638341
aF-34.15171506492254
aF-32.512512167915816
aF-30.259437993191
aF6.701867453002933
aF15.066001940000888
aF30.962329149954712
aF79.90388473773783
aF214.92125253285826
aF523.6898471793697
asg5
F0.7363868238664452
sg6
F0.3258404679654306
sg7
I97
sg8
F0.019364442023710092
sg9
F1.5646865182297562
sg10
F0.17272833432626392
sg11
F0.3455053792836861
saF-152.54428199922177
aa(lp57
(dp58
g3
(lp59
F-85.88005476638341
aF-34.15171506492254
aF-32.512512167915816
aF-30.259437993191
aF6.701867453002933
aF30.962329149954712
aF45.82557775636474
aF79.90388473773783
aF214.92125253285826
aF523.6898471793697
asg5
F0.7366564713996333
sg6
F0.3254811375455616
sg7
I98
sg8
F0.01935349883199243
sg9
F1.5646865182297562
sg10
F0.17272833432626392
sg11
F0.345660651124103
saF-152.54428199922177
aa(lp60
(dp61
g3
(lp62
F-85.88005476638341
aF-34.15171506492254
aF-32.512512167915816
aF-30.259437993191
aF6.701867453002933
aF30.962329149954712
aF45.82557775636474
aF79.90388473773783
aF214.92125253285826
aF523.6898471793697
asg5
F0.7363494284902605
sg6
F0.3255210631477693
sg7
I96
sg8
F0.019360679022212224
sg9
F1.5646865182297562
sg10
F0.17272833432626392
sg11
F0.3455270606362685
saF-152.54428199922177
aa(lp63
(dp64
g3
(lp65
F-85.88005476638341
aF-34.15171506492254
aF-32.512512167915816
aF-30.259437993191
aF6.701867453002933
aF15.066001940000888
aF30.962329149954712
aF79.90388473773783
aF214.92125253285826
aF523.6898471793697
asg5
F0.7364019308220009
sg6
F0.3258404679654306
sg7
I97
sg8
F0.019350759535077405
sg9
F1.5646865182297562
sg10
F0.17272833432626392
sg11
F0.3456141196058685
saF-152.54428199922177
aa(lp66
(dp67
g3
(lp68
F-85.88005476638341
aF-34.15171506492254
aF-32.512512167915816
aF-30.259437993191
aF6.701867453002933
aF30.962329149954712
aF45.82557775636474
aF79.90388473773783
aF214.92125253285826
aF523.6898471793697
asg5
F0.7368099928543197
sg6
F0.3258404679654306
sg7
I109
sg8
F0.019351631851879048
sg9
F1.5646865182297562
sg10
F0.17272833432626392
sg11
F0.3455770945268432
saF-152.54428199922177
aa(lp69
(dp70
g3
(lp71
F-85.88005476638341
aF-34.15171506492254
aF-32.512512167915816
aF-30.259437993191
aF6.701867453002933
aF30.962329149954712
aF45.82557775636474
aF79.90388473773783
aF214.92125253285826
aF523.6898471793697
asg5
F0.7369635143090061
sg6
F0.3258404679654306
sg7
I97
sg8
F0.01934988266964294
sg9
F1.5646865182297562
sg10
F0.17272833432626392
sg11
F0.3456511446848938
saF-152.54428199922177
aa(lp72
(dp73
g3
(lp74
F-85.88005476638341
aF-34.15171506492254
aF-32.512512167915816
aF-30.259437993191
aF6.701867453002933
aF30.962329149954712
aF33.09821070185831
aF45.82557775636474
aF214.92125253285826
aF523.6898471793697
asg5
F0.7362146047236664
sg6
F0.3250419559212773
sg7
I99
sg8
F0.01934988266964294
sg9
F1.5646865182297562
sg10
F0.17272833432626392
sg11
F0.3456141196058685
saF-152.54428199922177
aa(lp75
(dp76
g3
(lp77
F-85.88005476638341
aF-34.15171506492254
aF-32.512512167915816
aF-30.259437993191
aF6.701867453002933
aF30.962329149954712
aF33.09821070185831
aF45.82557775636474
aF214.92125253285826
aF523.6898471793697
asg5
F0.7363756796561307
sg6
F0.32520165833010795
sg7
I150
sg8
F0.01934988266964294
sg9
F1.5646865182297562
sg10
F0.17272833432626392
sg11
F0.3455866009660524
saF-152.54428199922177
aa(lp78
(dp79
g3
(lp80
F-85.88005476638341
aF-34.15171506492254
aF-32.512512167915816
aF-30.259437993191
aF6.701867453002933
aF30.962329149954712
aF45.82557775636474
aF79.90388473773783
aF214.92125253285826
aF523.6898471793697
asg5
F0.7369635143090061
sg6
F0.32568076555659997
sg7
I97
sg8
F0.019350159494721637
sg9
F1.5646865182297562
sg10
F0.17272833432626392
sg11
F0.3455400694478179
saF-152.54428199922177
aa(lp81
(dp82
g3
(lp83
F-85.88005476638341
aF-34.15171506492254
aF-32.512512167915816
aF-30.259437993191
aF6.701867453002933
aF15.066001940000888
aF30.962329149954712
aF79.90388473773783
aF214.92125253285826
aF523.6898471793697
asg5
F0.7363229103347161
sg6
F0.3258404679654306
sg7
I97
sg8
F0.019351631851879048
sg9
F1.5646865182297562
sg10
F0.17272833432626392
sg11
F0.3455400694478179
saF-152.54428199922177
aa(lp84
(dp85
g3
(lp86
F-85.88005476638341
aF-34.15171506492254
aF-32.512512167915816
aF-30.259437993191
aF6.701867453002933
aF15.066001940000888
aF30.962329149954712
aF68.99576468987925
aF214.92125253285826
aF523.6898471793697
asg5
F0.7360926281526865
sg6
F0.3258404679654306
sg7
I98
sg8
F0.019362498941470616
sg9
F1.5646865182297562
sg10
F0.17272833432626392
sg11
F0.34547068911955425
saF-152.54428199922177
aa(lp87
(dp88
g3
(lp89
F-85.88005476638341
aF-34.15171506492254
aF-32.512512167915816
aF-30.259437993191
aF6.701867453002933
aF30.962329149954712
aF45.82557775636474
aF79.90388473773783
aF214.92125253285826
aF523.6898471793697
asg5
F0.7368099928543197
sg6
F0.32568076555659997
sg7
I107
sg8
F0.019351631851879048
sg9
F1.5646865182297562
sg10
F0.17272833432626392
sg11
F0.3455770945268432
saF-152.54428199922177
aa(lp90
(dp91
g3
(lp92
F-85.88005476638341
aF-34.15171506492254
aF-32.512512167915816
aF-30.259437993191
aF6.701867453002933
aF15.066001940000888
aF30.962329149954712
aF79.90388473773783
aF214.92125253285826
aF523.6898471793697
asg5
F0.7364242192426298
sg6
F0.3258404679654306
sg7
I131
sg8
F0.01935097177542644
sg9
F1.5646865182297562
sg10
F0.17272833432626392
sg11
F0.3455770945268432
saF-152.54428199922177
aa(lp93
(dp94
g3
(lp95
F-85.88005476638341
aF-34.15171506492254
aF-32.512512167915816
aF-30.259437993191
aF6.701867453002933
aF30.962329149954712
aF45.82557775636474
aF79.90388473773783
aF214.92125253285826
aF523.6898471793697
asg5
F0.7369635143090061
sg6
F0.3254811375455616
sg7
I97
sg8
F0.019350883980956503
sg9
F1.5646865182297562
sg10
F0.17272833432626392
sg11
F0.3456511446848938
saF-152.54428199922177
aa(lp96
(dp97
g3
(lp98
F-85.88005476638341
aF-34.15171506492254
aF-32.512512167915816
aF-30.259437993191
aF6.701867453002933
aF30.962329149954712
aF45.82557775636474
aF79.90388473773783
aF214.92125253285826
aF523.6898471793697
asg5
F0.7362146047236664
sg6
F0.32568076555659997
sg7
I98
sg8
F0.01934988266964294
sg9
F1.5646865182297562
sg10
F0.17272833432626392
sg11
F0.3455553297844432
saF-152.54428199922177
aa(lp99
(dp100
g3
(lp101
F-85.88005476638341
aF-34.15171506492254
aF-32.512512167915816
aF-30.259437993191
aF6.701867453002933
aF30.962329149954712
aF33.09821070185831
aF45.82557775636474
aF214.92125253285826
aF523.6898471793697
asg5
F0.7358101334238842
sg6
F0.32520165833010795
sg7
I98
sg8
F0.019362330991950963
sg9
F1.5646865182297562
sg10
F0.17272833432626392
sg11
F0.34561845587638496
saF-152.54428199922177
aa(lp102
(dp103
g3
(lp104
F-85.88005476638341
aF-34.15171506492254
aF-32.512512167915816
aF-30.259437993191
aF6.701867453002933
aF30.962329149954712
aF45.82557775636474
aF79.90388473773783
aF214.92125253285826
aF523.6898471793697
asg5
F0.7365590430092239
sg6
F0.3258404679654306
sg7
I97
sg8
F0.01935002108218229
sg9
F1.5646865182297562
sg10
F0.17272833432626392
sg11
F0.3456331324842869
saF-152.54428199922177
aa(lp105
(dp106
g3
(lp107
F-85.88005476638341
aF-34.15171506492254
aF-32.512512167915816
aF-30.259437993191
aF6.701867453002933
aF30.962329149954712
aF33.09821070185831
aF45.82557775636474
aF214.92125253285826
aF523.6898471793697
asg5
F0.7362210283214735
sg6
F0.3250419559212773
sg7
I107
sg8
F0.019360555859231143
sg9
F1.5646865182297562
sg10
F0.17272833432626392
sg11
F0.3455400694478179
saF-152.54428199922177
aa(lp108
(dp109
g3
(lp110
F-85.88005476638341
aF-34.15171506492254
aF-32.512512167915816
aF-30.259437993191
aF6.701867453002933
aF30.962329149954712
aF33.09821070185831
aF45.82557775636474
aF214.92125253285826
aF523.6898471793697
asg5
F0.7358314121508585
sg6
F0.32456284869478536
sg7
I99
sg8
F0.01935521926443704
sg9
F1.5646865182297562
sg10
F0.17272833432626392
sg11
F0.34559024927057347
saF-152.54428199922177
aa(lp111
(dp112
g3
(lp113
F-85.88005476638341
aF-34.15171506492254
aF-32.512512167915816
aF-30.259437993191
aF6.701867453002933
aF30.962329149954712
aF45.82557775636474
aF79.90388473773783
aF214.92125253285826
aF523.6898471793697
asg5
F0.7369635143090061
sg6
F0.3255210631477693
sg7
I97
sg8
F0.019357162346676518
sg9
F1.5646865182297562
sg10
F0.17272833432626392
sg11
F0.3455335650420432
saF-152.54428199922177
aa(lp114
(dp115
g3
(lp116
F-85.88005476638341
aF-34.15171506492254
aF-32.512512167915816
aF-30.259437993191
aF6.701867453002933
aF30.962329149954712
aF33.09821070185831
aF45.82557775636474
aF214.92125253285826
aF523.6898471793697
asg5
F0.7369635143090061
sg6
F0.32456284869478536
sg7
I98
sg8
F0.01934988266964294
sg9
F1.5646865182297562
sg10
F0.17272833432626392
sg11
F0.3455400694478179
saF-152.54428199922177
aa(lp117
(dp118
g3
(lp119
F-85.88005476638341
aF-34.15171506492254
aF-32.512512167915816
aF-30.259437993191
aF6.701867453002933
aF30.962329149954712
aF45.82557775636474
aF79.90388473773783
aF214.92125253285826
aF523.6898471793697
asg5
F0.7369635143090061
sg6
F0.3258404679654306
sg7
I99
sg8
F0.01934988266964294
sg9
F1.5646865182297562
sg10
F0.17272833432626392
sg11
F0.3456141196058685
saF-152.54428199922177
aa(lp120
(dp121
g3
(lp122
F-85.88005476638341
aF-34.15171506492254
aF-32.512512167915816
aF-30.259437993191
aF6.701867453002933
aF30.962329149954712
aF45.82557775636474
aF79.90388473773783
aF214.92125253285826
aF523.6898471793697
asg5
F0.7366732585451952
sg6
F0.3258404679654306
sg7
I96
sg8
F0.01934988266964294
sg9
F1.5646865182297562
sg10
F0.17272833432626392
sg11
F0.3456881697639191
saF-152.54428199922177
aa(lp123
(dp124
g3
(lp125
F-85.88005476638341
aF-34.15171506492254
aF-32.512512167915816
aF-30.259437993191
aF6.701867453002933
aF30.962329149954712
aF45.82557775636474
aF79.90388473773783
aF214.92125253285826
aF523.6898471793697
asg5
F0.7366938667758179
sg6
F0.3255210631477693
sg7
I98
sg8
F0.01934988266964294
sg9
F1.5646865182297562
sg10
F0.17272833432626392
sg11
F0.3456331324842869
saF-152.54428199922177
aa(lp126
(dp127
g3
(lp128
F-85.88005476638341
aF-34.15171506492254
aF-32.512512167915816
aF-30.259437993191
aF6.701867453002933
aF15.066001940000888
aF30.962329149954712
aF79.90388473773783
aF214.92125253285826
aF523.6898471793697
asg5
F0.7364019308220009
sg6
F0.3258404679654306
sg7
I122
sg8
F0.01934988721827576
sg9
F1.5646865182297562
sg10
F0.17272833432626392
sg11
F0.3456141196058685
saF-152.54428199922177
aa(lp129
(dp130
g3
(lp131
F-85.88005476638341
aF-34.15171506492254
aF-32.512512167915816
aF-30.259437993191
aF6.701867453002933
aF30.962329149954712
aF45.82557775636474
aF79.90388473773783
aF214.92125253285826
aF523.6898471793697
asg5
F0.7366732585451952
sg6
F0.3258404679654306
sg7
I99
sg8
F0.01935249498386677
sg9
F1.5646865182297562
sg10
F0.17272833432626392
sg11
F0.3455400694478179
saF-152.54428199922177
aa(lp132
(dp133
g3
(lp134
F-85.88005476638341
aF-34.15171506492254
aF-32.512512167915816
aF-30.259437993191
aF6.701867453002933
aF15.066001940000888
aF30.962329149954712
aF79.90388473773783
aF214.92125253285826
aF523.6898471793697
asg5
F0.7363494284902605
sg6
F0.3258404679654306
sg7
I131
sg8
F0.019352060881209936
sg9
F1.5646865182297562
sg10
F0.17272833432626392
sg11
F0.3455400694478179
saF-152.54428199922177
aa(lp135
(dp136
g3
(lp137
F-85.88005476638341
aF-34.15171506492254
aF-32.512512167915816
aF-30.259437993191
aF6.701867453002933
aF15.066001940000888
aF30.962329149954712
aF79.90388473773783
aF214.92125253285826
aF523.6898471793697
asg5
F0.735735342671515
sg6
F0.3258404679654306
sg7
I98
sg8
F0.01935978842362926
sg9
F1.5646865182297562
sg10
F0.17272833432626392
sg11
F0.3455400694478179
saF-152.54428199922177
aa(lp138
(dp139
g3
(lp140
F-85.88005476638341
aF-34.15171506492254
aF-32.512512167915816
aF-30.259437993191
aF6.701867453002933
aF15.066001940000888
aF30.962329149954712
aF79.90388473773783
aF214.92125253285826
aF523.6898471793697
asg5
F0.7358101334238842
sg6
F0.3258404679654306
sg7
I97
sg8
F0.019362330991950963
sg9
F1.5646865182297562
sg10
F0.17272833432626392
sg11
F0.3455487419888509
saF-152.54428199922177
aa(lp141
(dp142
g3
(lp143
F-85.88005476638341
aF-34.15171506492254
aF-32.512512167915816
aF-30.259437993191
aF6.701867453002933
aF15.066001940000888
aF30.962329149954712
aF79.90388473773783
aF214.92125253285826
aF523.6898471793697
asg5
F0.7358358278151125
sg6
F0.3258404679654306
sg7
I99
sg8
F0.019360555859231143
sg9
F1.5646865182297562
sg10
F0.17272833432626392
sg11
F0.3455881019827696
saF-152.54428199922177
aa(lp144
(dp145
g3
(lp146
F-85.88005476638341
aF-34.15171506492254
aF-32.512512167915816
aF-30.259437993191
aF6.701867453002933
aF30.962329149954712
aF33.09821070185831
aF45.82557775636474
aF214.92125253285826
aF523.6898471793697
asg5
F0.7366983601485939
sg6
F0.32456284869478536
sg7
I105
sg8
F0.01936587519294449
sg9
F1.5646865182297562
sg10
F0.17272833432626392
sg11
F0.3455972748627083
saF-152.54428199922177
aa(lp147
(dp148
g3
(lp149
F-85.88005476638341
aF-34.15171506492254
aF-32.512512167915816
aF-30.259437993191
aF6.701867453002933
aF30.962329149954712
aF45.82557775636474
aF79.90388473773783
aF214.92125253285826
aF523.6898471793697
asg5
F0.7369635143090061
sg6
F0.3258404679654306
sg7
I97
sg8
F0.01934988266964294
sg9
F1.5646865182297562
sg10
F0.17272833432626392
sg11
F0.3455400694478179
saF-152.54428199922177
aa(lp150
(dp151
g3
(lp152
F-85.88005476638341
aF-34.15171506492254
aF-32.512512167915816
aF-30.259437993191
aF6.701867453002933
aF15.066001940000888
aF30.962329149954712
aF79.90388473773783
aF214.92125253285826
aF523.6898471793697
asg5
F0.7364242192426298
sg6
F0.3258404679654306
sg7
I96
sg8
F0.01934988266964294
sg9
F1.5646865182297562
sg10
F0.17272833432626392
sg11
F0.3455972748627083
saF-152.54428199922177
aa(lp153
(dp154
g3
(lp155
F-85.88005476638341
aF-34.15171506492254
aF-32.512512167915816
aF-30.259437993191
aF6.701867453002933
aF30.962329149954712
aF33.09821070185831
aF45.82557775636474
aF214.92125253285826
aF523.6898471793697
asg5
F0.7374740835150901
sg6
F0.32456284869478536
sg7
I100
sg8
F0.01934988266964294
sg9
F1.5646865182297562
sg10
F0.17272833432626392
sg11
F0.3456881697639191
saF-152.54428199922177
aa(lp156
(dp157
g3
(lp158
F-85.88005476638341
aF-34.15171506492254
aF-32.512512167915816
aF-30.259437993191
aF6.701867453002933
aF15.066001940000888
aF30.962329149954712
aF79.90388473773783
aF214.92125253285826
aF523.6898471793697
asg5
F0.7363494284902605
sg6
F0.3258404679654306
sg7
I99
sg8
F0.019364442023710092
sg9
F1.5646865182297562
sg10
F0.17272833432626392
sg11
F0.3455053792836861
saF-152.54428199922177
aa(lp159
(dp160
g3
(lp161
F-85.88005476638341
aF-34.15171506492254
aF-32.512512167915816
aF-30.259437993191
aF6.701867453002933
aF15.066001940000888
aF30.962329149954712
aF79.90388473773783
aF214.92125253285826
aF523.6898471793697
asg5
F0.7369117560026753
sg6
F0.3258404679654306
sg7
I99
sg8
F0.019364442023710092
sg9
F1.5646865182297562
sg10
F0.17272833432626392
sg11
F0.3455053792836861
saF-152.54428199922177
aa(lp162
(dp163
g3
(lp164
F-85.88005476638341
aF-34.15171506492254
aF-32.512512167915816
aF-30.259437993191
aF6.701867453002933
aF30.962329149954712
aF33.09821070185831
aF45.82557775636474
aF214.92125253285826
aF523.6898471793697
asg5
F0.7374740835150901
sg6
F0.32456284869478536
sg7
I100
sg8
F0.019351631851879048
sg9
F1.5646865182297562
sg10
F0.17272833432626392
sg11
F0.3455400694478179
saF-152.54428199922177
aa(lp165
(dp166
g3
(lp167
F-85.88005476638341
aF-34.15171506492254
aF-32.512512167915816
aF-30.259437993191
aF6.701867453002933
aF30.962329149954712
aF45.82557775636474
aF79.90388473773783
aF214.92125253285826
aF523.6898471793697
asg5
F0.7369635143090061
sg6
F0.3255210631477693
sg7
I97
sg8
F0.019357162346676518
sg9
F1.5646865182297562
sg10
F0.17272833432626392
sg11
F0.3455335650420432
saF-152.54428199922177
aa(lp168
(dp169
g3
(lp170
F-505.0463875967308
aF-338.86136153923064
aF-295.1245434390104
aF-213.05341190467686
aF-188.00646925025762
aF8.081025199728288
aF201.9611034922009
aF360.6935942137263
aF368.24749078234254
aF631.8343124984865
asg5
F0.7364242192426298
sg6
F0.32544121194335396
sg7
I27
sg8
F0.01934988266964294
sg9
F1.5646865182297562
sg10
F0.17272833432626392
sg11
F0.3455553297844432
saF-1139.032292574972
aa(lp171
(dp172
g3
(lp173
F-85.88005476638341
aF-34.15171506492254
aF-32.512512167915816
aF-30.259437993191
aF6.701867453002933
aF30.962329149954712
aF45.82557775636474
aF79.90388473773783
aF214.92125253285826
aF523.6898471793697
asg5
F0.7365403453211316
sg6
F0.3258404679654306
sg7
I99
sg8
F0.01934988266964294
sg9
F1.5646865182297562
sg10
F0.17272833432626392
sg11
F0.3455770945268432
saF-152.54428199922177
aa(lp174
(dp175
g3
(lp176
F-85.88005476638341
aF-34.15171506492254
aF-32.512512167915816
aF-30.259437993191
aF6.701867453002933
aF15.066001940000888
aF30.962329149954712
aF79.90388473773783
aF214.92125253285826
aF523.6898471793697
asg5
F0.7363229103347161
sg6
F0.3258404679654306
sg7
I99
sg8
F0.01934988266964294
sg9
F1.5646865182297562
sg10
F0.17272833432626392
sg11
F0.3455400694478179
saF-152.54428199922177
aa(lp177
(dp178
g3
(lp179
F-85.88005476638341
aF-34.15171506492254
aF-32.512512167915816
aF-30.259437993191
aF6.701867453002933
aF30.962329149954712
aF45.82557775636474
aF79.90388473773783
aF214.92125253285826
aF523.6898471793697
asg5
F0.7362146047236664
sg6
F0.32568076555659997
sg7
I98
sg8
F0.019351690750817684
sg9
F1.5646865182297562
sg10
F0.17272833432626392
sg11
F0.3455553297844432
saF-152.54428199922177
aa(lp180
(dp181
g3
(lp182
F-85.88005476638341
aF-34.15171506492254
aF-32.512512167915816
aF-30.259437993191
aF6.701867453002933
aF30.962329149954712
aF45.82557775636474
aF79.90388473773783
aF214.92125253285826
aF523.6898471793697
asg5
F0.7369635143090061
sg6
F0.3258404679654306
sg7
I97
sg8
F0.019356190805556776
sg9
F1.5646865182297562
sg10
F0.17272833432626392
sg11
F0.3455053792836861
saF-152.54428199922177
aa(lp183
(dp184
g3
(lp185
F-85.88005476638341
aF-34.15171506492254
aF-32.512512167915816
aF-30.259437993191
aF6.701867453002933
aF30.962329149954712
aF45.82557775636474
aF79.90388473773783
aF214.92125253285826
aF523.6898471793697
asg5
F0.7358101334238842
sg6
F0.3254811375455616
sg7
I97
sg8
F0.019351690750817684
sg9
F1.5646865182297562
sg10
F0.17272833432626392
sg11
F0.3455487419888509
saF-152.54428199922177
aa(lp186
(dp187
g3
(lp188
F-85.88005476638341
aF-34.15171506492254
aF-32.512512167915816
aF-30.259437993191
aF6.701867453002933
aF15.066001940000888
aF30.962329149954712
aF68.99576468987925
aF214.92125253285826
aF523.6898471793697
asg5
F0.7360926281526865
sg6
F0.3258404679654306
sg7
I99
sg8
F0.019363470482590354
sg9
F1.5646865182297562
sg10
F0.17272833432626392
sg11
F0.34547068911955425
saF-152.54428199922177
aa(lp189
(dp190
g3
(lp191
F-85.88005476638341
aF-34.15171506492254
aF-32.512512167915816
aF-30.259437993191
aF6.701867453002933
aF30.962329149954712
aF33.09821070185831
aF45.82557775636474
aF214.92125253285826
aF523.6898471793697
asg5
F0.7366938667758179
sg6
F0.32520165833010795
sg7
I99
sg8
F0.019352550967039993
sg9
F1.5646865182297562
sg10
F0.17272833432626392
sg11
F0.3456141196058685
saF-152.54428199922177
aa(lp192
(dp193
g3
(lp194
F-85.88005476638341
aF-34.15171506492254
aF-32.512512167915816
aF-30.259437993191
aF6.701867453002933
aF15.066001940000888
aF30.962329149954712
aF79.90388473773783
aF214.92125253285826
aF523.6898471793697
asg5
F0.7363868238664452
sg6
F0.3258404679654306
sg7
I83
sg8
F0.019357162346676518
sg9
F1.5646865182297562
sg10
F0.17272833432626392
sg11
F0.3455053792836861
saF-152.54428199922177
aa(lp195
(dp196
g3
(lp197
F-85.88005476638341
aF-34.15171506492254
aF-32.512512167915816
aF-30.259437993191
aF6.701867453002933
aF30.962329149954712
aF45.82557775636474
aF79.90388473773783
aF214.92125253285826
aF523.6898471793697
asg5
F0.736761278659115
sg6
F0.3258404679654306
sg7
I97
sg8
F0.019350452531569397
sg9
F1.5646865182297562
sg10
F0.17272833432626392
sg11
F0.3456511446848938
saF-152.54428199922177
aa(lp198
(dp199
g3
(lp200
F-85.88005476638341
aF-34.15171506492254
aF-32.512512167915816
aF-30.259437993191
aF6.701867453002933
aF30.962329149954712
aF45.82557775636474
aF79.90388473773783
aF214.92125253285826
aF523.6898471793697
asg5
F0.7362210283214735
sg6
F0.32544121194335396
sg7
I101
sg8
F0.019360555859231143
sg9
F1.5646865182297562
sg10
F0.17272833432626392
sg11
F0.3455400694478179
saF-152.54428199922177
aa(lp201
(dp202
g3
(lp203
F-85.88005476638341
aF-34.15171506492254
aF-32.512512167915816
aF-30.259437993191
aF6.701867453002933
aF15.066001940000888
aF30.962329149954712
aF79.90388473773783
aF214.92125253285826
aF523.6898471793697
asg5
F0.735735342671515
sg6
F0.3258404679654306
sg7
I98
sg8
F0.019351631851879048
sg9
F1.5646865182297562
sg10
F0.17272833432626392
sg11
F0.3455400694478179
saF-152.54428199922177
aa(lp204
(dp205
g3
(lp206
F-85.88005476638341
aF-34.15171506492254
aF-32.512512167915816
aF-30.259437993191
aF6.701867453002933
aF30.962329149954712
aF33.09821070185831
aF45.82557775636474
aF214.92125253285826
aF523.6898471793697
asg5
F0.735735342671515
sg6
F0.32488225351244665
sg7
I113
sg8
F0.019362456721026308
sg9
F1.5646865182297562
sg10
F0.17272833432626392
sg11
F0.3455794607129183
saF-152.54428199922177
aa(lp207
(dp208
g3
(lp209
F-85.88005476638341
aF-34.15171506492254
aF-32.512512167915816
aF-30.259437993191
aF6.701867453002933
aF15.066001940000888
aF30.962329149954712
aF79.90388473773783
aF214.92125253285826
aF523.6898471793697
asg5
F0.7366732585451952
sg6
F0.3258404679654306
sg7
I99
sg8
F0.019357162346676518
sg9
F1.5646865182297562
sg10
F0.17272833432626392
sg11
F0.34559677452380255
saF-152.54428199922177
aa(lp210
(dp211
g3
(lp212
F-85.88005476638341
aF-34.15171506492254
aF-32.512512167915816
aF-30.259437993191
aF6.701867453002933
aF30.962329149954712
aF33.09821070185831
aF45.82557775636474
aF214.92125253285826
aF523.6898471793697
asg5
F0.7358101334238842
sg6
F0.32520165833010795
sg7
I98
sg8
F0.019357412987908867
sg9
F1.5646865182297562
sg10
F0.17272833432626392
sg11
F0.3455792626621014
saF-152.54428199922177
aa(lp213
(dp214
g3
(lp215
F-279.70984892962474
aF-242.13397528727694
aF-99.60489038871356
aF-93.72918433240773
aF-58.60190209557845
aF43.78654386510266
aF205.86213574067483
aF216.57763103126626
aF456.21257178466476
aF728.0626634849166
asg5
F0.7366732585451952
sg6
F0.3258404679654306
sg7
I109
sg8
F0.019350757260760992
sg9
F1.5646865182297562
sg10
F0.17272833432626392
sg11
F0.18973223406483794
saF-621.4487146056152
aa(lp216
(dp217
g3
(lp218
F-85.88005476638341
aF-34.15171506492254
aF-32.512512167915816
aF-30.259437993191
aF6.701867453002933
aF30.962329149954712
aF33.09821070185831
aF45.82557775636474
aF214.92125253285826
aF523.6898471793697
asg5
F0.7361060321229426
sg6
F0.32520165833010795
sg7
I98
sg8
F0.019350759535077405
sg9
F1.5646865182297562
sg10
F0.17272833432626392
sg11
F0.34561845587638496
saF-152.54428199922177
aa(lp219
(dp220
g3
(lp221
F-85.88005476638341
aF-34.15171506492254
aF-32.512512167915816
aF-30.259437993191
aF6.701867453002933
aF30.962329149954712
aF45.82557775636474
aF79.90388473773783
aF214.92125253285826
aF523.6898471793697
asg5
F0.7366732585451952
sg6
F0.3255210631477693
sg7
I99
sg8
F0.01935249498386677
sg9
F1.5646865182297562
sg10
F0.17272833432626392
sg11
F0.3456141196058685
saF-152.54428199922177
aa(lp222
(dp223
g3
(lp224
F-85.88005476638341
aF-34.15171506492254
aF-32.512512167915816
aF-30.259437993191
aF6.701867453002933
aF15.066001940000888
aF30.962329149954712
aF68.99576468987925
aF214.92125253285826
aF523.6898471793697
asg5
F0.7362077692437012
sg6
F0.3258404679654306
sg7
I97
sg8
F0.01935706539667483
sg9
F1.5646865182297562
sg10
F0.17272833432626392
sg11
F0.34547068911955425
saF-152.54428199922177
aa(lp225
(dp226
g3
(lp227
F-243.26557657944875
aF-240.4996859548952
aF-189.01181957550284
aF-162.04673865477503
aF-114.10176470809381
aF-111.9002273524726
aF41.88567944196939
aF109.60049293681845
aF246.91092982879445
aF379.0380246155614
asg5
F0.7362146047236664
sg6
F0.3253613607389386
sg7
I61
sg8
F0.01934988266964294
sg9
F1.5646865182297562
sg10
F0.17272833432626392
sg11
F0.3455847246951559
saF-672.7770821098468
aa(lp228
(dp229
g3
(lp230
F-425.78645052621357
aF-379.397354160904
aF-370.465862809291
aF-160.31998686440852
aF-31.497682791245893
aF31.12213192628724
aF222.90067961156865
aF259.52434688054905
aF305.2459468726945
aF611.1232427048326
asg5
F0.7362210283214735
sg6
F0.3251218071256926
sg7
I33
sg8
F0.01934988266964294
sg9
F1.5646865182297562
sg10
F0.17272833432626392
sg11
F0.3455400694478179
saF-1175.6496674964087
aa(lp231
(dp232
g3
(lp233
F-232.30250290863592
aF-198.4468444803765
aF-148.56423762898942
aF-103.0388866593853
aF-97.37612006821746
aF-27.012651156260404
aF10.150457367095441
aF179.66084935643153
aF232.19870000210722
aF431.1806663820389
asg5
F0.7364242192426298
sg6
F0.3258404679654306
sg7
I102
sg8
F0.019351631851879048
sg9
F1.5646865182297562
sg10
F0.17272833432626392
sg11
F0.2643556173352461
saF-579.3135850180018
aa(lp234
(dp235
g3
(lp236
F-85.88005476638341
aF-34.15171506492254
aF-32.512512167915816
aF-30.259437993191
aF6.701867453002933
aF15.066001940000888
aF30.962329149954712
aF79.90388473773783
aF214.92125253285826
aF523.6898471793697
asg5
F0.7361617777780356
sg6
F0.3258404679654306
sg7
I97
sg8
F0.019362330991950963
sg9
F1.5646865182297562
sg10
F0.17272833432626392
sg11
F0.345558707072057
saF-152.54428199922177
aa(lp237
(dp238
g3
(lp239
F-268.207592277368
aF-203.30898333717266
aF-110.00239023149311
aF-96.0909421268558
aF-46.35460789182207
aF-15.91950948801275
aF210.4873680997939
aF333.17607550520734
aF522.3257290898669
aF748.8199161129266
asg5
F0.7368099928543197
sg6
F0.32520165833010795
sg7
I127
sg8
F0.019351631851879048
sg9
F2.3082039216577086
sg10
F0.17272833432626392
sg11
F0.3455770945268432
saF-581.5189658460338
aa(lp240
(dp241
g3
(lp242
F-85.88005476638341
aF-34.15171506492254
aF-30.259437993191
aF-3.487887532954005
aF-3.3051093606445647
aF15.066001940000888
aF29.07219654405685
aF79.90388473773783
aF214.92125253285826
aF523.6898471793697
asg5
F0.6975890752839331
sg6
F0.3258404679654306
sg7
I96
sg8
F0.019350757260760992
sg9
F1.5646865182297562
sg10
F0.17272833432626392
sg11
F0.3456141196058685
saF-150.29120782449695
aa(lp243
(dp244
g3
(lp245
F-85.88005476638341
aF-34.15171506492254
aF-32.512512167915816
aF-30.259437993191
aF6.701867453002933
aF30.962329149954712
aF45.82557775636474
aF79.90388473773783
aF214.92125253285826
aF523.6898471793697
asg5
F0.7367903101787404
sg6
F0.3258404679654306
sg7
I98
sg8
F0.01934988266964294
sg9
F1.5646865182297562
sg10
F0.17272833432626392
sg11
F0.3456331324842869
saF-152.54428199922177
aa(lp246
(dp247
g3
(lp248
F-85.88005476638341
aF-34.15171506492254
aF-32.512512167915816
aF-30.259437993191
aF6.701867453002933
aF30.962329149954712
aF45.82557775636474
aF79.90388473773783
aF214.92125253285826
aF523.6898471793697
asg5
F0.7366180910359617
sg6
F0.3258404679654306
sg7
I97
sg8
F0.01935097177542644
sg9
F1.5646865182297562
sg10
F0.17272833432626392
sg11
F0.34556783825708687
saF-152.54428199922177
aa(lp249
(dp250
g3
(lp251
F-85.88005476638341
aF-34.15171506492254
aF-32.512512167915816
aF-30.259437993191
aF6.701867453002933
aF15.066001940000888
aF30.962329149954712
aF79.90388473773783
aF214.92125253285826
aF523.6898471793697
asg5
F0.7360797809570724
sg6
F0.3258404679654306
sg7
I99
sg8
F0.019357162346676518
sg9
F1.5646865182297562
sg10
F0.17272833432626392
sg11
F0.3455487419888509
saF-152.54428199922177
aa(lp252
(dp253
g3
(lp254
F-237.5092287753779
aF-167.75953099059143
aF-123.36309216809923
aF-91.87468865999733
aF-10.698277196055301
aF-2.7120177222697066
aF86.41042439769308
aF118.27395142169371
aF254.75910568844688
aF1116.970203917157
asg5
F0.7369635143090061
sg6
F0.3258404679654306
sg7
I97
sg8
F0.019349884943959353
sg9
F1.5646865182297562
sg10
F0.1385146282734208
sg11
F0.3455400694478179
saF-528.6318519340685
aa(lp255
(dp256
g3
(lp257
F-293.3280959154232
aF-203.30898333717266
aF-136.42437294632282
aF-110.00239023149311
aF-46.35460789182207
aF-25.859716462882034
aF210.4873680997939
aF320.441563369327
aF499.37609498298343
aF731.470512183236
asg5
F0.7358101334238842
sg6
F0.32520165833010795
sg7
I97
sg8
F0.01934988266964294
sg9
F2.3244736020434074
sg10
F0.17272833432626392
sg11
F0.3455835989326179
saF-633.0614521989187
aa(lp258
(dp259
g3
(lp260
F-216.22458152706622
aF-184.7477945059086
aF-81.48262448888875
aF1.5792916817655396
aF5.64802693448155
aF70.53518248151909
aF129.62566490034737
aF270.84439266889785
aF485.89429619086604
aF628.2320212922518
asg5
F0.7365403453211316
sg6
F0.3258404679654306
sg7
I108
sg8
F0.019350775499029145
sg9
F2.133804893144407
sg10
F0.17272833432626392
sg11
F0.3455400694478179
saF-482.45500052186355
aa(lp261
(dp262
g3
(lp263
F-320.2170389966443
aF-308.1545665765751
aF-219.05182560560968
aF-212.9889455459911
aF0.4819605007822929
aF70.08580734983707
aF131.02605801186132
aF290.0834368951155
aF456.48393519744263
aF593.4859607710112
asg5
F0.7366938667758179
sg6
F0.32568076555659997
sg7
I102
sg8
F0.019350757260760992
sg9
F1.5646865182297562
sg10
F0.17272833432626392
sg11
F0.03693255266879549
saF-847.4234311788291
aa(lp264
(dp265
g3
(lp266
F-85.88005476638341
aF-34.15171506492254
aF-32.512512167915816
aF-30.259437993191
aF6.701867453002933
aF30.962329149954712
aF45.82557775636474
aF79.90388473773783
aF214.92125253285826
aF523.6898471793697
asg5
F0.7368867535816629
sg6
F0.32568076555659997
sg7
I102
sg8
F0.019351631851879048
sg9
F1.5646865182297562
sg10
F0.17272833432626392
sg11
F0.3455585819873306
saF-152.54428199922177
aa(lp267
(dp268
g3
(lp269
F-85.88005476638341
aF-34.15171506492254
aF-32.512512167915816
aF-30.259437993191
aF6.701867453002933
aF30.962329149954712
aF45.82557775636474
aF79.90388473773783
aF214.92125253285826
aF523.6898471793697
asg5
F0.7368099928543197
sg6
F0.32568076555659997
sg7
I98
sg8
F0.019350757260760992
sg9
F1.5646865182297562
sg10
F0.17272833432626392
sg11
F0.3455770945268432
saF-152.54428199922177
aa(lp270
(dp271
g3
(lp272
F-151.53573567454623
aF-41.237772626040055
aF-40.586827997619025
aF-40.49119509442676
aF-21.599026001016796
aF-0.26955437929370873
aF67.258693227285
aF74.588716577382
aF231.41125209536722
aF497.47822323661853
asg5
F0.7374740835150901
sg6
F0.3456236401428303
sg7
I97
sg8
F0.01934988266964294
sg9
F1.5646865182297562
sg10
F0.17272833432626392
sg11
F0.34566965722440646
saF-233.3603362982053
aa(lp273
(dp274
g3
(lp275
F-85.88005476638341
aF-34.15171506492254
aF-32.512512167915816
aF-30.259437993191
aF6.701867453002933
aF30.962329149954712
aF33.09821070185831
aF45.82557775636474
aF214.92125253285826
aF523.6898471793697
asg5
F0.7365590430092239
sg6
F0.32520165833010795
sg7
I113
sg8
F0.019351558301057017
sg9
F1.5646865182297562
sg10
F0.17272833432626392
sg11
F0.34561169087743016
saF-152.54428199922177
aa(lp276
(dp277
g3
(lp278
F-85.88005476638341
aF-34.15171506492254
aF-32.512512167915816
aF-30.259437993191
aF6.701867453002933
aF30.962329149954712
aF45.82557775636474
aF79.90388473773783
aF214.92125253285826
aF523.6898471793697
asg5
F0.7363229103347161
sg6
F0.3255210631477693
sg7
I97
sg8
F0.019351631851879048
sg9
F1.5646865182297562
sg10
F0.17272833432626392
sg11
F0.3455400694478179
saF-152.54428199922177
aa(lp279
(dp280
g3
(lp281
F-253.1708821884123
aF-152.29614919109713
aF-102.47966085415374
aF-30.109905467529188
aF29.519512167164294
aF46.423930995414594
aF73.92259521618325
aF193.6190466347232
aF254.38918766154802
aF383.24417153142645
asg5
F0.7361378439963233
sg6
F0.4524859563656663
sg7
I98
sg8
F0.01849761392074789
sg9
F1.5646865182297562
sg10
F0.17272833432626392
sg11
F0.3455400694478179
saF-507.94669223366316
aa(lp282
(dp283
g3
(lp284
F-368.5859142438345
aF-359.0001221603152
aF-313.6913759261406
aF-212.18317705810784
aF-84.57866965548021
aF-54.95099535327381
aF45.31488453715406
aF123.21242916512756
aF318.6834072293657
aF815.6870182738196
asg5
F0.7363868238664452
sg6
F0.3258404679654306
sg7
I97
sg8
F0.019351631851879048
sg9
F1.5646865182297562
sg10
F0.1026345700695046
sg11
F0.3455412369052646
saF-1041.2774123302902
aa(lp285
(dp286
g3
(lp287
F-85.88005476638341
aF-34.15171506492254
aF-32.512512167915816
aF-30.259437993191
aF6.701867453002933
aF30.962329149954712
aF33.09821070185831
aF45.82557775636474
aF214.92125253285826
aF523.6898471793697
asg5
F0.7364242192426298
sg6
F0.32456284869478536
sg7
I122
sg8
F0.01934988721827576
sg9
F1.5646865182297562
sg10
F0.17272833432626392
sg11
F0.345602184438221
saF-152.54428199922177
aa(lp288
(dp289
g3
(lp290
F-426.37842839180234
aF-418.28840225613
aF-387.87710277362544
aF-385.944739351934
aF-231.6838071479326
aF-171.5877509788354
aF1.9014884119188764
aF71.06248298449145
aF328.92928373539894
aF541.9956587227177
asg5
F0.8058665535509666
sg6
F0.46132216260709213
sg7
I101
sg8
F0.019358317364010946
sg9
F1.5646865182297562
sg10
F0.009010078275295963
sg11
F0.3456056972342884
saF-1232.5439334215578
aa(lp291
(dp292
g3
(lp293
F-85.88005476638341
aF-34.15171506492254
aF-32.512512167915816
aF-30.259437993191
aF6.701867453002933
aF30.962329149954712
aF33.09821070185831
aF45.82557775636474
aF214.92125253285826
aF523.6898471793697
asg5
F0.7360904203205595
sg6
F0.32520165833010795
sg7
I99
sg8
F0.01935521926443704
sg9
F1.5646865182297562
sg10
F0.17272833432626392
sg11
F0.3455478142771298
saF-152.54428199922177
aa(lp294
(dp295
g3
(lp296
F-85.88005476638341
aF-34.15171506492254
aF-32.512512167915816
aF-30.259437993191
aF6.701867453002933
aF30.962329149954712
aF33.09821070185831
aF45.82557775636474
aF214.92125253285826
aF523.6898471793697
asg5
F0.7368099928543197
sg6
F0.32456284869478536
sg7
I129
sg8
F0.019351631851879048
sg9
F1.5646865182297562
sg10
F0.17272833432626392
sg11
F0.3455770945268432
saF-152.54428199922177
aa(lp297
(dp298
g3
(lp299
F-85.88005476638341
aF-34.15171506492254
aF-32.512512167915816
aF-30.259437993191
aF6.701867453002933
aF30.962329149954712
aF33.09821070185831
aF45.82557775636474
aF214.92125253285826
aF523.6898471793697
asg5
F0.7363494284902605
sg6
F0.3250419559212773
sg7
I101
sg8
F0.019360555859231143
sg9
F1.5646865182297562
sg10
F0.17272833432626392
sg11
F0.3455400694478179
saF-152.54428199922177
aa(lp300
(dp301
g3
(lp302
F-85.88005476638341
aF-34.15171506492254
aF-32.512512167915816
aF-30.259437993191
aF6.701867453002933
aF30.962329149954712
aF45.82557775636474
aF79.90388473773783
aF214.92125253285826
aF523.6898471793697
asg5
F0.7369635143090061
sg6
F0.3258404679654306
sg7
I102
sg8
F0.01935613735919566
sg9
F1.5646865182297562
sg10
F0.17272833432626392
sg11
F0.34553681724493057
saF-152.54428199922177
aa(lp303
(dp304
g3
(lp305
F-85.88005476638341
aF-34.15171506492254
aF-32.512512167915816
aF-30.259437993191
aF6.701867453002933
aF30.962329149954712
aF45.82557775636474
aF79.90388473773783
aF214.92125253285826
aF523.6898471793697
asg5
F0.7364448869056961
sg6
F0.32568076555659997
sg7
I98
sg8
F0.019350775499029145
sg9
F1.5646865182297562
sg10
F0.17272833432626392
sg11
F0.3455400694478179
saF-152.54428199922177
aa(lp306
(dp307
g3
(lp308
F-85.88005476638341
aF-34.15171506492254
aF-32.512512167915816
aF-30.259437993191
aF6.701867453002933
aF30.962329149954712
aF45.82557775636474
aF79.90388473773783
aF214.92125253285826
aF523.6898471793697
asg5
F0.7364448869056961
sg6
F0.3257606167610153
sg7
I131
sg8
F0.01935097177542644
sg9
F1.5646865182297562
sg10
F0.17272833432626392
sg11
F0.3455400694478179
saF-152.54428199922177
aa.