(lp0
(lp1
(dp2
S'winnings'
p3
(lp4
F-83.10090457572812
aF-73.60555268073938
aF-43.83665343371899
aF-14.236607654050658
aF-6.375170204303799
aF3.602386491548941
aF43.53737573940998
aF44.55877815892768
aF110.96818863164981
aF157.95473880361055
asS'end_weight'
p5
F1.0
sS'close_match_threshold'
p6
F0.3123450193047809
sS'history_in_matches'
p7
I35
sS'start_weight'
p8
F0.8744788205263859
sS'over_power_threshold'
p9
F1.6456713135348249
sS'over_power_extra'
p10
F0.17348777062500448
sS'close_match_trim'
p11
F0.3155637268186495
saF-200.5431106901865
aa(lp12
(dp13
g3
(lp14
F-103.10016475918178
aF-82.1189224983442
aF-48.97422340087803
aF-42.862384263582044
aF-41.85665584466403
aF-9.36432144997218
aF-3.9182194283993113
aF34.285006871448786
aF68.11207160085974
aF242.1324198795362
asg5
F0.855217043205736
sg6
F0.323786379990952
sg7
I35
sg8
F0.781472993813807
sg9
F1.654581777678721
sg10
F0.17348777062500448
sg11
F0.30006383701479866
saF-234.19331065840402
aa(lp15
(dp16
g3
(lp17
F-103.10016475918178
aF-82.1189224983442
aF-48.97422340087803
aF-42.862384263582044
aF-41.85665584466403
aF-9.36432144997218
aF-3.9182194283993113
aF34.285006871448786
aF68.11207160085974
aF242.1324198795362
asg5
F0.855217043205736
sg6
F0.323786379990952
sg7
I35
sg8
F0.781472993813807
sg9
F1.654581777678721
sg10
F0.17348777062500448
sg11
F0.30006383701479866
saF-234.19331065840402
aa(lp18
(dp19
g3
(lp20
F-169.91525166866973
aF-60.60522456727733
aF-31.20148335403246
aF-22.919424285092873
aF-22.40272681158831
aF72.70955663271775
aF159.8730636868429
aF235.9090756846656
aF511.2945906500365
aF794.5179194580862
asg5
F1.0
sg6
F0.24959775017739644
sg7
I87
sg8
F0.9456341188208472
sg9
F1.6275558367233467
sg10
F0.19921298424869796
sg11
F0.3088912501983505
saF-261.7219595899795
aa(lp21
(dp22
g3
(lp23
F-135.48115471554172
aF-116.73627249224421
aF-9.54813616870888
aF11.148629388442487
aF17.690302872214033
aF35.469558152818536
aF86.10453786969879
aF125.29426621223115
aF490.5095641699436
aF848.8435881784314
asg5
F0.9944402156035049
sg6
F0.2687528365970727
sg7
I87
sg8
F0.9330361985504888
sg9
F1.6302965211721452
sg10
F0.19921298424869796
sg11
F0.3088912501983505
saF-261.7655633764948
aa(lp24
(dp25
g3
(lp26
F-123.20623249899211
aF-78.55060305733366
aF-61.02506486738537
aF-41.093361541485024
aF-37.714214750398014
aF-24.568409285442158
aF32.93320583286322
aF56.03804436747396
aF74.69013789704081
aF107.57795897636151
asg5
F0.891412782404302
sg6
F0.323786379990952
sg7
I35
sg8
F0.8279759071700965
sg9
F1.6387675540341382
sg10
F0.17348777062500448
sg11
F0.30762556732323676
saF-262.78190042371114
aa(lp27
(dp28
g3
(lp29
F-161.63510455314452
aF-70.09406068275939
aF-32.54204173353935
aF-31.20148335403246
aF-22.40272681158831
aF72.70955663271775
aF148.1571741546536
aF211.39839364476347
aF526.7159640240136
aF794.5179194580862
asg5
F0.9888804312070099
sg6
F0.24959775017739644
sg7
I92
sg8
F0.9489794309434465
sg9
F1.6275558367233467
sg10
F0.19921298424869796
sg11
F0.3094107901609229
saF-264.27120696944326
aa(lp30
(dp31
g3
(lp32
F-169.91525166866973
aF-70.09406068275939
aF-31.20148335403246
aF-22.919424285092873
aF-22.40272681158831
aF72.70955663271775
aF159.8730636868429
aF235.9090756846656
aF526.7159640240136
aF794.5179194580862
asg5
F1.0
sg6
F0.24959775017739644
sg7
I86
sg8
F0.9489794309434465
sg9
F1.6275558367233467
sg10
F0.19921298424869796
sg11
F0.3101505112211836
saF-271.2107957054616
aa(lp33
(dp34
g3
(lp35
F-169.91525166866973
aF-70.09406068275939
aF-31.20148335403246
aF-22.919424285092873
aF-22.40272681158831
aF72.70955663271775
aF159.8730636868429
aF235.9090756846656
aF526.7159640240136
aF794.5179194580862
asg5
F1.0
sg6
F0.24959775017739644
sg7
I87
sg8
F0.9489794309434465
sg9
F1.6275558367233467
sg10
F0.19921298424869796
sg11
F0.3088912501983505
saF-271.2107957054616
aa(lp36
(dp37
g3
(lp38
F-135.48115471554172
aF-125.3283320983503
aF-19.55270044983274
aF17.690302872214033
aF24.11992998766732
aF35.469558152818536
aF86.10453786969879
aF125.29426621223115
aF490.5095641699436
aF863.0759495561558
asg5
F0.9972201078017524
sg6
F0.2687528365970727
sg7
I87
sg8
F0.9450718339036697
sg9
F1.6302965211721452
sg10
F0.19921298424869796
sg11
F0.3088912501983505
saF-280.36218726372476
aa(lp39
(dp40
g3
(lp41
F-169.91525166866973
aF-79.48704996879178
aF-32.54204173353935
aF-32.277446742784946
aF-31.20148335403246
aF51.14810548929677
aF148.1571741546536
aF223.7206232617425
aF526.7159640240136
aF794.5179194580862
asg5
F0.9777608624140197
sg6
F0.24959775017739644
sg7
I89
sg8
F0.9304742146479282
sg9
F1.6275558367233467
sg10
F0.19921298424869796
sg11
F0.3067968630314236
saF-281.94434337100085
aa(lp42
(dp43
g3
(lp44
F-161.7209303623382
aF-70.09406068275939
aF-51.229936915507324
aF-45.541123810131126
aF-43.01989870719842
aF72.70955663271775
aF147.8507021142368
aF211.39839364476347
aF502.9075279378692
aF725.6740707033637
asg5
F1.0
sg6
F0.24959775017739644
sg7
I86
sg8
F0.9674846472389649
sg9
F1.6298570898902422
sg10
F0.19921298424869796
sg11
F0.3101505112211836
saF-283.0449279606049
aa(lp45
(dp46
g3
(lp47
F-161.7209303623382
aF-70.09406068275939
aF-51.229936915507324
aF-31.20148335403246
aF-22.40272681158831
aF72.70955663271775
aF136.55962694097093
aF211.39839364476347
aF526.7159640240136
aF725.6740707033637
asg5
F1.0
sg6
F0.24959775017739644
sg7
I87
sg8
F0.9582320390912057
sg9
F1.6298570898902422
sg10
F0.19921298424869796
sg11
F0.3104579837443863
saF-283.0449279606049
aa(lp48
(dp49
g3
(lp50
F-125.18947356124045
aF-80.91234312199686
aF-78.77512866400082
aF-65.27641540086131
aF-19.0548129143084
aF-7.216523888942447
aF59.47193732143796
aF178.74492398834673
aF441.5322287356298
aF936.8822118431033
asg5
F0.9944402156035049
sg6
F0.31195272917312905
sg7
I87
sg8
F0.8976668977463269
sg9
F1.6321583430571378
sg10
F0.19921298424869796
sg11
F0.3102238940790968
saF-284.8769453472381
aa(lp51
(dp52
g3
(lp53
F-153.16706230481168
aF-78.65604491186173
aF-53.92965268349269
aF-22.40272681158831
aF-21.684798514679983
aF72.70955663271775
aF148.1571741546536
aF223.7206232617425
aF511.2945906500365
aF780.8092848022561
asg5
F0.9944402156035049
sg6
F0.24959775017739644
sg7
I87
sg8
F0.9330361985504888
sg9
F1.6289261789477458
sg10
F0.19921298424869796
sg11
F0.3088912501983505
saF-285.7527599001661
aa(lp54
(dp55
g3
(lp56
F-161.7209303623382
aF-70.09406068275939
aF-57.58450186026221
aF-51.229936915507324
aF-22.40272681158831
aF72.70955663271775
aF136.55962694097093
aF211.39839364476347
aF557.5587107719707
aF725.6740707033637
asg5
F1.0
sg6
F0.24959775017739644
sg7
I87
sg8
F0.9622960582479076
sg9
F1.6303400787302533
sg10
F0.19921298424869796
sg11
F0.3101342847133126
saF-289.3994929053598
aa(lp57
(dp58
g3
(lp59
F-133.97888907855963
aF-80.91234312199686
aF-78.77512866400082
aF-65.27641540086131
aF-19.0548129143084
aF-7.216523888942447
aF69.89468141707425
aF178.74492398834673
aF456.2417412737491
aF843.7628747352617
asg5
F1.0
sg6
F0.31195272917312905
sg7
I87
sg8
F0.8976668977463269
sg9
F1.6321583430571378
sg10
F0.19921298424869796
sg11
F0.311556537959843
saF-293.6663608645573
aa(lp60
(dp61
g3
(lp62
F-142.78308535087558
aF-92.86534812090156
aF-58.18387252628497
aF-55.981353442106865
aF-48.40260169165788
aF-29.728366499247386
aF66.38322639172702
aF221.24033302698604
aF617.648191585728
aF789.161813659186
asg5
F0.9777608624140197
sg6
F0.25488866807037536
sg7
I73
sg8
F0.925975935310507
sg9
F1.6335000814423912
sg10
F0.19921298424869796
sg11
F0.33361881542075006
saF-293.8323059980621
aa(lp63
(dp64
g3
(lp65
F-161.7209303623382
aF-78.65604491186173
aF-53.92965268349269
aF-22.40272681158831
aF-21.684798514679983
aF72.70955663271775
aF148.1571741546536
aF223.7206232617425
aF511.2945906500365
aF794.5179194580862
asg5
F1.0
sg6
F0.24959775017739644
sg7
I86
sg8
F0.9432504353865001
sg9
F1.6301086408195293
sg10
F0.19921298424869796
sg11
F0.30921334376635407
saF-294.3066279576926
aa(lp66
(dp67
g3
(lp68
F-123.0970985860464
aF-95.1753338886233
aF-76.33024223167502
aF-65.01721811898892
aF-45.51594784960844
aF-16.570011237134054
aF-15.989343690471287
aF88.63773937540691
aF89.5587625751316
aF203.90795165800273
asg5
F1.0
sg6
F0.323786379990952
sg7
I35
sg8
F0.8744788205263859
sg9
F1.6456713135348249
sg10
F0.17348777062500448
sg11
F0.30006383701479866
saF-294.6026747063447
aa(lp69
(dp70
g3
(lp71
F-153.16706230481168
aF-87.96254950871128
aF-53.92965268349269
aF-42.052422028209776
aF-41.531865937193515
aF125.0792266688411
aF139.91172328617063
aF193.55039672913813
aF511.2945906500365
aF780.8092848022561
asg5
F1.0
sg6
F0.24959775017739644
sg7
I88
sg8
F0.9391438201590983
sg9
F1.6330372056209437
sg10
F0.19921298424869796
sg11
F0.30604699841433153
saF-295.05926449701565
aa(lp72
(dp73
g3
(lp74
F-153.16706230481168
aF-87.96254950871128
aF-53.92965268349269
aF-42.052422028209776
aF-41.531865937193515
aF125.0792266688411
aF139.91172328617063
aF193.55039672913813
aF511.2945906500365
aF780.8092848022561
asg5
F1.0
sg6
F0.24959775017739644
sg7
I86
sg8
F0.9391438201590983
sg9
F1.6334565238842833
sg10
F0.19921298424869796
sg11
F0.30604699841433153
saF-295.05926449701565
aa(lp75
(dp76
g3
(lp77
F-161.7209303623382
aF-87.96254950871128
aF-45.541123810131126
aF-43.01989870719842
aF-41.89624224669569
aF72.70955663271775
aF147.8507021142368
aF211.39839364476347
aF502.9075279378692
aF743.2829897921749
asg5
F1.0
sg6
F0.24959775017739644
sg7
I89
sg8
F0.9674846472389649
sg9
F1.6311334919383336
sg10
F0.19921298424869796
sg11
F0.31202471729042214
saF-295.2246036811806
aa(lp78
(dp79
g3
(lp80
F-153.16706230481168
aF-78.65604491186173
aF-63.48591881800121
aF-32.277446742784946
aF-11.701990336259655
aF51.14810548929904
aF148.1571741546536
aF223.7206232617425
aF511.2945906500365
aF780.8092848022561
asg5
F0.9777608624140197
sg6
F0.24959775017739644
sg7
I85
sg8
F0.91196899835241
sg9
F1.6298570898902422
sg10
F0.19921298424869796
sg11
F0.3077372523737723
saF-295.3090260346746
aa(lp81
(dp82
g3
(lp83
F-153.16706230481168
aF-78.65604491186173
aF-63.48591881800121
aF-41.531865937193515
aF-32.277446742784946
aF136.55962694097093
aF151.54347556460357
aF193.55039672913813
aF511.2945906500365
aF780.8092848022561
asg5
F1.0
sg6
F0.24959775017739644
sg7
I87
sg8
F0.9330361985504888
sg9
F1.6348990275059363
sg10
F0.19921298424869796
sg11
F0.3088912501983505
saF-295.3090260346746
aa(lp84
(dp85
g3
(lp86
F-113.5720116222808
aF-99.36602738997658
aF-82.85284047491416
aF-75.486272432531
aF-10.897263581221978
aF125.29278371326109
aF140.03178699523482
aF148.00303819711735
aF150.33658600690842
aF212.39435623688678
asg5
F0.9095106520035849
sg6
F0.2866920650841742
sg7
I35
sg8
F0.8744788205263859
sg9
F1.630860442211847
sg10
F0.17348777062500448
sg11
F0.30762556732323676
saF-295.79087948717154
aa(lp87
(dp88
g3
(lp89
F-139.73526538669626
aF-95.93959101401742
aF-63.68823425357277
aF-46.207060523669725
aF-19.757577967071597
aF9.989377179289932
aF22.488517315068407
aF207.31546592596578
aF650.8298548242137
aF807.4185668597863
asg5
F0.9777608624140197
sg6
F0.25488866807037536
sg7
I73
sg8
F0.9304742146479282
sg9
F1.6275558367233467
sg10
F0.19921298424869796
sg11
F0.34853722600463866
saF-299.36309065428645
aa(lp90
(dp91
g3
(lp92
F-169.91525166866973
aF-88.78516057516777
aF-40.98732695651722
aF-32.277446742784946
aF-22.919424285092873
aF51.14810548929677
aF206.14491022307107
aF235.9090756846656
aF526.7159640240136
aF777.068309194977
asg5
F0.9649685616232372
sg6
F0.24959775017739644
sg7
I89
sg8
F0.9170929661575311
sg9
F1.6275558367233467
sg10
F0.19921298424869796
sg11
F0.3038835770370404
saF-299.6877392003547
aa(lp93
(dp94
g3
(lp95
F-161.7209303623382
aF-97.17504900862195
aF-40.98732695651722
aF-32.277446742784946
aF-21.310314372143466
aF40.53044785809266
aF193.96162830162893
aF223.7206232617425
aF561.4140541154684
aF759.7732404923493
asg5
F1.0
sg6
F0.24959775017739644
sg7
I82
sg8
F0.946730291274736
sg9
F1.6300650832614214
sg10
F0.19921298424869796
sg11
F0.3038835770370404
saF-299.8833063274774
aa(lp96
(dp97
g3
(lp98
F-154.80200236348878
aF-84.42607464652724
aF-61.45216886420917
aF-44.02591565631383
aF-36.8022359267909
aF-33.32989090005378
aF14.73243388754895
aF18.0807593432894
aF161.52332601585545
aF198.6034671812547
asg5
F0.7912162451013134
sg6
F0.3123450193047809
sg7
I35
sg8
F0.781472993813807
sg9
F1.6461245278541756
sg10
F0.17348777062500448
sg11
F0.3155637268186495
saF-300.6802458742252
aa(lp99
(dp100
g3
(lp101
F-161.7209303623382
aF-97.17504900862343
aF-41.79319469266454
aF-32.277446742784946
aF-31.20148335403246
aF51.14810548929677
aF125.0792266688411
aF223.7206232617425
aF526.7159640240136
aF794.5179194580862
asg5
F0.9824842808116185
sg6
F0.24959775017739644
sg7
I87
sg8
F0.9330361985504888
sg9
F1.6302965211721452
sg10
F0.19921298424869796
sg11
F0.30638741361769545
saF-300.6891740636262
aa(lp102
(dp103
g3
(lp104
F-161.7209303623382
aF-87.96254950871128
aF-51.229936915507324
aF-31.20148335403246
aF-22.40272681158831
aF72.70955663271775
aF136.55962694097093
aF223.7206232617425
aF526.7159640240136
aF794.5179194580862
asg5
F0.9777608624140197
sg6
F0.24959775017739644
sg7
I89
sg8
F0.9317552065992085
sg9
F1.6312274321146414
sg10
F0.19921298424869796
sg11
F0.3088912501983505
saF-300.9134167865568
aa(lp105
(dp106
g3
(lp107
F-161.7209303623382
aF-87.96254950871128
aF-51.229936915507324
aF-31.20148335403246
aF-22.40272681158831
aF72.70955663271775
aF136.55962694097093
aF223.7206232617425
aF526.7159640240136
aF794.5179194580862
asg5
F1.0
sg6
F0.24959775017739644
sg7
I87
sg8
F0.9533142336990316
sg9
F1.630527959082869
sg10
F0.19921298424869796
sg11
F0.31011805820544164
saF-300.9134167865568
aa(lp108
(dp109
g3
(lp110
F-161.7209303623382
aF-87.96254950871128
aF-51.229936915507324
aF-31.20148335403246
aF-22.40272681158831
aF72.70955663271775
aF136.55962694097093
aF211.39839364476347
aF526.7159640240136
aF708.2430194841379
asg5
F1.0
sg6
F0.24959775017739644
sg7
I87
sg8
F0.9571074692568504
sg9
F1.6303400787302533
sg10
F0.19921298424869796
sg11
F0.3101342847133126
saF-300.9134167865568
aa(lp111
(dp112
g3
(lp113
F-161.7209303623382
aF-87.96254950871128
aF-51.229936915507324
aF-32.277446742784946
aF-31.20148335403246
aF61.87410656572138
aF136.55962694097093
aF211.63449364927828
aF526.7159640240136
aF794.5179194580862
asg5
F0.9777608624140197
sg6
F0.24959775017739644
sg7
I89
sg8
F0.9304742146479282
sg9
F1.6321583430571378
sg10
F0.19921298424869796
sg11
F0.30847368712630363
saF-300.9134167865568
aa(lp114
(dp115
g3
(lp116
F-163.29624661775995
aF-97.60848144891702
aF-40.74638605928874
aF-36.33701482648041
aF-18.534137323981213
aF-4.882817711447387
aF9.089550591600073
aF51.965473888367114
aF327.81254513179306
aF356.68558650998807
asg5
F1.0
sg6
F0.28565466676197593
sg7
I68
sg8
F0.7074455751787762
sg9
F1.7018306012466626
sg10
F0.18635037743685123
sg11
F0.34444721844393644
saF-301.6511141259657
aa(lp117
(dp118
g3
(lp119
F-153.339315259106
aF-107.92566174403646
aF-41.07465423063013
aF-0.48749821602405063
aF9.063456818376949
aF17.0776742846233
aF97.18723723571497
aF125.13735266913227
aF460.5503371378568
aF798.9167431911658
asg5
F0.9824842808116185
sg6
F0.2710063859460413
sg7
I82
sg8
F0.8934637820568916
sg9
F1.6275558367233467
sg10
F0.19921298424869796
sg11
F0.307000817621241
saF-302.3396312337726
aa(lp120
(dp121
g3
(lp122
F-161.63510455314452
aF-88.78516057516777
aF-55.18212255952517
aF-52.68636437682335
aF-42.3143443422905
aF51.14810548929677
aF211.39839364476347
aF225.31100763187328
aF502.9075279378692
aF759.1181242536161
asg5
F0.9824842808116185
sg6
F0.24959775017739644
sg7
I84
sg8
F0.9571074692568504
sg9
F1.6275558367233467
sg10
F0.19921298424869796
sg11
F0.3038835770370404
saF-305.60238768783745
aa(lp123
(dp124
g3
(lp125
F-161.7209303623382
aF-88.78516057516777
aF-55.18212255952517
aF-52.68636437682335
aF-51.229936915507324
aF51.14810548929677
aF193.64292989984347
aF211.39839364476347
aF502.9075279378692
aF777.068309194977
asg5
F1.0
sg6
F0.24959775017739644
sg7
I85
sg8
F0.9674846472389649
sg9
F1.6300650832614214
sg10
F0.19921298424869796
sg11
F0.3038835770370404
saF-305.68821349703114
aa(lp126
(dp127
g3
(lp128
F-169.91525166866973
aF-107.48481028944832
aF-31.20148335403246
aF-22.919424285092873
aF-22.40272681158831
aF72.70955663271775
aF159.8730636868429
aF235.9090756846656
aF511.2945906500365
aF708.2430194841379
asg5
F1.0
sg6
F0.24959775017739644
sg7
I85
sg8
F0.9456341188208472
sg9
F1.6275558367233467
sg10
F0.19921298424869796
sg11
F0.31046526205668157
saF-308.6015453121505
aa(lp129
(dp130
g3
(lp131
F-153.339315259106
aF-107.92566174403646
aF-47.39296618957985
aF-0.48749821602405063
aF9.063456818376949
aF17.0776742846233
aF97.18723723571497
aF125.13735266913227
aF475.4539120066104
aF816.5965146230196
asg5
F0.9824842808116185
sg6
F0.2710063859460413
sg7
I97
sg8
F0.8934637820568916
sg9
F1.6275558367233467
sg10
F0.19921298424869796
sg11
F0.307000817621241
saF-308.6579431927223
aa(lp132
(dp133
g3
(lp134
F-124.08901018393999
aF-107.92214175297613
aF-78.62769297144496
aF-75.68484978023287
aF19.791787146375214
aF22.17280683058607
aF78.45709712125972
aF85.89410385371684
aF181.8502451583106
aF200.42954466838046
asg5
F1.0
sg6
F0.29417166852454624
sg7
I35
sg8
F0.9170929661575311
sg9
F1.6348990275059363
sg10
F0.17348777062500448
sg11
F0.307599665000196
saF-310.6388449083611
aa(lp135
(dp136
g3
(lp137
F-135.48115471554172
aF-116.73627249224421
aF-58.975676398294354
aF7.410602843202696
aF10.781883474081951
aF75.13378496192308
aF103.03844628047455
aF111.56669246016486
aF490.5095641699436
aF688.9532636780432
asg5
F0.9888804312070099
sg6
F0.2687528365970727
sg7
I87
sg8
F0.9170929661575311
sg9
F1.6330372056209437
sg10
F0.19921298424869796
sg11
F0.31202471729042214
saF-311.1931036060803
aa(lp138
(dp139
g3
(lp140
F-161.7209303623382
aF-87.96254950871128
aF-62.4341412371366
aF-51.229936915507324
aF-45.541123810131126
aF72.70955663271775
aF147.8507021142368
aF193.3178206052903
aF502.9075279378692
aF725.6740707033637
asg5
F1.0
sg6
F0.24959775017739644
sg7
I90
sg8
F0.9674846472389649
sg9
F1.6321583430571378
sg10
F0.19921298424869796
sg11
F0.3101505112211836
saF-312.1176211081861
aa(lp141
(dp142
g3
(lp143
F-161.7209303623382
aF-87.96254950871128
aF-62.4341412371366
aF-51.229936915507324
aF-45.541123810131126
aF72.70955663271775
aF147.8507021142368
aF193.3178206052903
aF502.9075279378692
aF725.6740707033637
asg5
F1.0
sg6
F0.24959775017739644
sg7
I92
sg8
F0.9674846472389649
sg9
F1.6321583430571378
sg10
F0.19921298424869796
sg11
F0.3102238940790968
saF-312.1176211081861
aa(lp144
(dp145
g3
(lp146
F-161.7209303623382
aF-87.96254950871128
aF-62.4341412371366
aF-51.229936915507324
aF-45.541123810131126
aF72.70955663271775
aF147.8507021142368
aF193.3178206052903
aF502.9075279378692
aF725.6740707033637
asg5
F1.0
sg6
F0.24959775017739644
sg7
I86
sg8
F0.9674846472389649
sg9
F1.6321583430571378
sg10
F0.19921298424869796
sg11
F0.3101505112211836
saF-312.1176211081861
aa(lp147
(dp148
g3
(lp149
F-161.7209303623382
aF-87.96254950871128
aF-62.4341412371366
aF-51.229936915507324
aF-45.541123810131126
aF72.70955663271775
aF147.8507021142368
aF193.3178206052903
aF502.9075279378692
aF725.6740707033637
asg5
F1.0
sg6
F0.24959775017739644
sg7
I86
sg8
F0.9674846472389649
sg9
F1.6321583430571378
sg10
F0.19921298424869796
sg11
F0.3101505112211836
saF-312.1176211081861
aa(lp150
(dp151
g3
(lp152
F-161.7209303623382
aF-87.96254950871128
aF-62.4341412371366
aF-55.18212255952585
aF-51.229936915507324
aF72.70955663271775
aF147.8507021142368
aF181.53196558696504
aF502.9075279378692
aF725.6740707033637
asg5
F1.0
sg6
F0.24959775017739644
sg7
I87
sg8
F0.9674846472389649
sg9
F1.6335000814423912
sg10
F0.19921298424869796
sg11
F0.3101505112211836
saF-312.1176211081861
aa(lp153
(dp154
g3
(lp155
F-161.7209303623382
aF-87.96254950871128
aF-62.4341412371366
aF-45.541123810131126
aF-41.89624224669569
aF72.70955663271775
aF147.8507021142368
aF193.3178206052903
aF502.9075279378692
aF743.2829897921749
asg5
F1.0
sg6
F0.24959775017739644
sg7
I92
sg8
F0.9674846472389649
sg9
F1.6321583430571378
sg10
F0.19921298424869796
sg11
F0.31202471729042214
saF-312.1176211081861
aa(lp156
(dp157
g3
(lp158
F-161.7209303623382
aF-87.96254950871128
aF-62.4341412371366
aF-51.229936915507324
aF-45.541123810131126
aF72.70955663271775
aF147.8507021142368
aF193.3178206052903
aF502.9075279378692
aF725.6740707033637
asg5
F1.0
sg6
F0.24959775017739644
sg7
I90
sg8
F0.9674846472389649
sg9
F1.6321583430571378
sg10
F0.19921298424869796
sg11
F0.3101505112211836
saF-312.1176211081861
aa(lp159
(dp160
g3
(lp161
F-250.24464172503144
aF-180.39876498374974
aF-110.41541030805763
aF-72.06291770250289
aF-38.78356893597913
aF187.23027684501994
aF197.77012193032306
aF266.2104078256086
aF534.2063722315982
aF566.9008628930662
asg5
F1.0
sg6
F0.24959775017739644
sg7
I90
sg8
F0.8744788205263859
sg9
F1.6321583430571378
sg10
F0.18635037743685123
sg11
F0.30510717411799115
saF-541.0588170168388
aa(lp162
(dp163
g3
(lp164
F-131.87448526716923
aF-103.86893455871382
aF-81.64128100802077
aF-19.148377534419296
aF-17.328142343336708
aF-10.910978413457656
aF12.830674843410407
aF53.545739546805635
aF56.03804436747623
aF154.5322128233845
asg5
F0.8232166441535247
sg6
F0.323786379990952
sg7
I35
sg8
F0.781472993813807
sg9
F1.654581777678721
sg10
F0.17348777062500448
sg11
F0.3078137819167241
saF-317.3847008339038
aa(lp165
(dp166
g3
(lp167
F-161.7209303623382
aF-87.96254950871128
aF-62.4341412371366
aF-51.229936915507324
aF-45.541123810131126
aF72.70955663271775
aF147.8507021142368
aF193.3178206052903
aF502.9075279378692
aF725.6740707033637
asg5
F1.0
sg6
F0.24959775017739644
sg7
I87
sg8
F0.9674846472389649
sg9
F1.6316459174977358
sg10
F0.19921298424869796
sg11
F0.311556537959843
saF-312.1176211081861
aa(lp168
(dp169
g3
(lp170
F-261.326324928787
aF-204.54751746533543
aF-159.88151044044434
aF-139.44768979887328
aF-119.62037122333061
aF-41.2727416371971
aF82.15353555229626
aF262.74609348877266
aF353.8333519675043
aF964.4664902132581
asg5
F1.0
sg6
F0.48317812939413185
sg7
I87
sg8
F0.9456341188208472
sg9
F1.6303400787302533
sg10
F0.19921298424869796
sg11
F0.3101342847133126
saF-625.7553528345668
aa(lp171
(dp172
g3
(lp173
F-414.88783517722595
aF-373.61342142747264
aF-213.63669913794536
aF-188.04913859376052
aF-88.94694027739627
aF-30.844303564884626
aF-24.591410290023305
aF110.6475668697642
aF299.2744491014207
aF458.9377824927303
asg5
F0.9095106520035849
sg6
F0.2866920650841742
sg7
I60
sg8
F0.8744788205263859
sg9
F1.6298570898902422
sg10
F0.18635037743685123
sg11
F0.3077372523737723
saF-1002.137955742644
aa(lp174
(dp175
g3
(lp176
F-161.63510455314452
aF-88.78516057516777
aF-67.10385032631996
aF-55.18212255952517
aF-32.54204173353935
aF51.14810548929677
aF193.96162830162893
aF211.39839364476347
aF557.5587107719707
aF777.068309194977
asg5
F0.9912421404058093
sg6
F0.24959775017739644
sg7
I87
sg8
F0.9571074692568504
sg9
F1.6275558367233467
sg10
F0.19921298424869796
sg11
F0.3038835770370404
saF-317.52411545463224
aa(lp177
(dp178
g3
(lp179
F-161.7209303623382
aF-87.96254950871128
aF-51.229936915507324
aF-45.541123810131126
aF-43.01989870719842
aF72.70955663271775
aF147.8507021142368
aF211.39839364476347
aF502.9075279378692
aF725.6740707033637
asg5
F1.0
sg6
F0.24959775017739644
sg7
I89
sg8
F0.9674846472389649
sg9
F1.6311334919383336
sg10
F0.19921298424869796
sg11
F0.3101505112211836
saF-300.9134167865568
aa(lp180
(dp181
g3
(lp182
F-185.91749230349467
aF-125.15585055170754
aF-87.44619858336625
aF7.410602843202128
aF29.15892985216874
aF31.628051525632827
aF31.805847596485364
aF98.85910368342206
aF521.7771193532064
aF828.7369139345058
asg5
F1.0
sg6
F0.28077523967526274
sg7
I87
sg8
F0.9153515481484078
sg9
F1.6321583430571378
sg10
F0.19921298424869796
sg11
F0.3102238940790968
saF-398.51954143856847
aa(lp183
(dp184
g3
(lp185
F-454.03671250955506
aF-363.5773822302907
aF-335.4692642063749
aF-238.54776774081813
aF-172.85062557383299
aF-162.2149050880961
aF34.40279811679284
aF189.96103255886487
aF297.4089019358257
aF927.8419047463792
asg5
F1.0
sg6
F0.24959775017739644
sg7
I87
sg8
F0.9432504353865001
sg9
F4.233637665043413
sg10
F0.19921298424869796
sg11
F0.30638741361769545
saF-1153.0833589462206
aa(lp186
(dp187
g3
(lp188
F-357.2396971546643
aF-266.9686338979194
aF-217.30014361677854
aF-212.65865048844285
aF-187.58109313702937
aF-60.62080736529106
aF101.44343621214944
aF134.91013115919463
aF317.28410619811393
aF536.009590312158
asg5
F1.0
sg6
F0.0383109677019301
sg7
I92
sg8
F0.9553675413127325
sg9
F1.6321583430571378
sg10
F0.19921298424869796
sg11
F0.30921334376635407
saF-841.5084746693623
aa(lp189
(dp190
g3
(lp191
F-176.33324804933625
aF-176.16852057062056
aF-96.77908466259373
aF-77.68655778359789
aF-34.385167857199804
aF16.764651131228106
aF19.187391253998044
aF272.73441318440405
aF511.6250057330053
aF636.7234296820898
asg5
F0.9972201078017524
sg6
F0.46903255197268906
sg7
I87
sg8
F0.9330361985504888
sg9
F1.6275558367233467
sg10
F0.19921298424869796
sg11
F0.036814850940063114
saF-449.28085328255054
aa(lp192
(dp193
g3
(lp194
F-153.16706230481168
aF-87.96254950871128
aF-53.92965268349269
aF-42.052422028209776
aF-41.531865937193515
aF125.0792266688411
aF139.91172328617063
aF193.55039672913813
aF511.2945906500365
aF780.8092848022561
asg5
F1.0
sg6
F0.24959775017739644
sg7
I87
sg8
F0.9391438201590983
sg9
F1.6332468647526135
sg10
F0.19921298424869796
sg11
F0.30604699841433153
saF-295.05926449701565
aa(lp195
(dp196
g3
(lp197
F-171.24536572008492
aF-93.77134302024115
aF-93.53276483724562
aF-67.33660457170413
aF-32.74756830078945
aF21.246788277739938
aF36.49716561045534
aF224.8177036994873
aF634.7868047287391
aF719.8416649200585
asg5
F0.9777608624140197
sg6
F0.25224320912388587
sg7
I73
sg8
F0.9674846472389649
sg9
F1.6328292122497645
sg10
F0.19921298424869796
sg11
F0.33361881542075006
saF-358.5494735775717
aa(lp198
(dp199
g3
(lp200
F-307.7304903923032
aF-94.27878764689876
aF-75.43384155691342
aF-74.13327395418241
aF4.722992152255074
aF12.679676988766118
aF64.63901244576164
aF82.17748975147265
aF648.0423919986554
aF891.5267978936738
asg5
F1.0
sg6
F0.29417166852454624
sg7
I73
sg8
F0.9304742146479282
sg9
F1.6312274321146414
sg10
F0.17348777062500448
sg11
F0.3280684455024173
saF-477.44311959611537
aa(lp201
(dp202
g3
(lp203
F-161.7209303623382
aF-104.03223365054112
aF-75.50948577396684
aF-21.31578420458436
aF-10.83352831231798
aF83.65557251672408
aF147.8507021142368
aF173.67318415409773
aF526.7159640240136
aF725.6740707033637
asg5
F0.9888804312070099
sg6
F0.25224320912388587
sg7
I87
sg8
F0.9622960582479076
sg9
F1.6303400787302533
sg10
F0.19921298424869796
sg11
F0.3101342847133126
saF-341.26264978684617
aa(lp204
(dp205
g3
(lp206
F-161.7209303623382
aF-87.96254950871128
aF-32.277446742784946
aF-31.20148335403246
aF-27.758852594728296
aF51.148105489299724
aF136.55962694097093
aF223.7206232617425
aF561.4140541154684
aF777.0530248648206
asg5
F1.0
sg6
F0.24959775017739644
sg7
I82
sg8
F0.946730291274736
sg9
F1.630527959082869
sg10
F0.19921298424869796
sg11
F0.307000817621241
saF-281.96092661383443
aa(lp207
(dp208
g3
(lp209
F-185.88425378733257
aF-114.2565388337722
aF-31.40044221430594
aF-30.331589315469614
aF-2.408213948640082
aF42.61145613579356
aF131.86232927548235
aF136.50237643346827
aF449.7884154491594
aF893.2967509992766
asg5
F0.9801225716128191
sg6
F0.26030206806171885
sg7
I89
sg8
F0.9304742146479282
sg9
F1.6275558367233467
sg10
F0.19921298424869796
sg11
F0.307000817621241
saF-331.5412348354107
aa(lp210
(dp211
g3
(lp212
F-266.3088722894171
aF-122.99832542593924
aF-44.564758847908365
aF-33.47941740192607
aF29.15321475922724
aF38.58252788737627
aF108.0629274762
aF203.80653114410666
aF610.761382393242
aF781.5364331161977
asg5
F0.9801225716128191
sg6
F0.25224320912388587
sg7
I78
sg8
F0.9304742146479282
sg9
F1.6275558367233467
sg10
F0.19921298424869796
sg11
F0.3262104015208395
saF-433.8719565632647
aa(lp213
(dp214
g3
(lp215
F-165.52923335835317
aF-126.04130537035167
aF-76.76626045191654
aF-20.469616471673362
aF-12.20886992663327
aF2.2211029220353566
aF35.34364054112416
aF241.07025587505723
aF707.5411327140368
aF954.9837158037687
asg5
F0.9777608624140197
sg6
F0.25488866807037536
sg7
I73
sg8
F0.946730291274736
sg9
F1.6335000814423912
sg10
F0.19921298424869796
sg11
F0.3101505112211836
saF-368.33679918062137
aa(lp216
(dp217
g3
(lp218
F-175.20305438302876
aF-139.94369504325016
aF-110.73150658892894
aF-41.75232589880193
aF3.613079428080823
aF56.87671338351424
aF77.66332792318758
aF96.61943654436845
aF196.8673135200579
aF326.02232555661544
asg5
F0.8956081225506567
sg6
F0.24959775017739644
sg7
I35
sg8
F0.8641016425442715
sg9
F1.6461245278541756
sg10
F0.17348777062500448
sg11
F0.3155637268186495
saF-425.87825601520785
aa(lp219
(dp220
g3
(lp221
F-135.48115471554172
aF-116.73627249224421
aF-58.975676398294354
aF0.9350068693671574
aF17.690302872214033
aF25.010269686628362
aF86.10453786969879
aF103.03844628047455
aF475.4539120066104
aF756.2798334734268
asg5
F0.9944402156035049
sg6
F0.2687528365970727
sg7
I87
sg8
F0.9213693658249983
sg9
F1.6312274321146414
sg10
F0.19921298424869796
sg11
F0.3102238940790968
saF-311.1931036060803
aa(lp222
(dp223
g3
(lp224
F-153.16706230481168
aF-78.65604491186173
aF-53.92965268349269
aF-32.277446742784946
aF-21.684798514679983
aF61.87410656572138
aF148.1571741546536
aF223.7206232617425
aF511.2945906500365
aF780.8092848022561
asg5
F0.9944402156035049
sg6
F0.24959775017739644
sg7
I87
sg8
F0.9330361985504888
sg9
F1.6289261789477458
sg10
F0.19921298424869796
sg11
F0.30763933190802295
saF-285.7527599001661
aa(lp225
(dp226
g3
(lp227
F-168.55157237989158
aF-125.3283320983503
aF-30.208488999284782
aF7.410602843202128
aF20.014788628151678
aF44.29198921469833
aF97.18723723571497
aF136.50237643346486
aF490.5095641699436
aF927.0603761065693
asg5
F0.9824842808116185
sg6
F0.2710063859460413
sg7
I91
sg8
F0.9304742146479282
sg9
F1.6275558367233467
sg10
F0.19921298424869796
sg11
F0.3101505112211836
saF-324.08839347752667
aa(lp228
(dp229
g3
(lp230
F-153.35904438091472
aF-88.78516057516777
aF-55.18212255952517
aF-52.68636437682335
aF-51.229936915507324
aF51.14810548929677
aF205.82295979677474
aF211.39839364476347
aF502.9075279378692
aF777.068309194977
asg5
F1.0
sg6
F0.24959775017739644
sg7
I87
sg8
F0.9674846472389649
sg9
F1.628810459992384
sg10
F0.19921298424869796
sg11
F0.3038835770370404
saF-297.32632751560766
aa(lp231
(dp232
g3
(lp233
F-506.037052163544
aF-455.12433904286627
aF-437.57571008894035
aF-393.27631026762776
aF-255.00877625298222
aF-134.41163591861925
aF42.77620142960404
aF157.53313889941273
aF165.2798329365287
aF654.2073604132092
asg5
F0.9345868224091609
sg6
F0.24959775017739644
sg7
I62
sg8
F0.7467635835438574
sg9
F2.8372585838395437
sg10
F0.18635037743685123
sg11
F0.3067968630314236
saF-1398.7371012953506
aa(lp234
(dp235
g3
(lp236
F-219.6282729889915
aF-206.68084466701498
aF-184.2797235300577
aF-8.021877723929038
aF41.3312992752642
aF54.690376371716184
aF143.33100887539194
aF156.36762815389898
aF370.98380037682705
aF514.0712819028452
asg5
F0.9912421404058093
sg6
F0.2710063859460413
sg7
I82
sg8
F0.8004546786178339
sg9
F1.6646932189850046
sg10
F0.19921298424869796
sg11
F0.3257240180325887
saF-610.5888411860642
aa(lp237
(dp238
g3
(lp239
F-161.7209303623382
aF-87.96254950871128
aF-51.229936915507324
aF-31.20148335403246
aF-22.40272681158831
aF72.70955663271775
aF136.55962694097093
aF223.7206232617425
aF526.7159640240136
aF794.5179194580862
asg5
F0.9777608624140197
sg6
F0.24959775017739644
sg7
I89
sg8
F0.9317552065992085
sg9
F1.6312274321146414
sg10
F0.19921298424869796
sg11
F0.31011805820544164
saF-300.9134167865568
aa(lp240
(dp241
g3
(lp242
F-183.49383951421066
aF-168.60247843591424
aF-153.7891908805418
aF-106.74076508903693
aF-71.51483204173928
aF-36.086663366335415
aF-23.727545075150374
aF65.81556590955825
aF72.61761835419316
aF158.3023524692128
asg5
F1.0
sg6
F0.323786379990952
sg7
I35
sg8
F0.8934637820568916
sg9
F1.6410688072010338
sg10
F0.19921298424869796
sg11
F0.30006383701479866
saF-505.8855088306667
aa(lp243
(dp244
g3
(lp245
F-161.7209303623382
aF-87.96254950871128
aF-62.4341412371366
aF-55.18212255952585
aF-51.229936915507324
aF72.70955663271775
aF147.8507021142368
aF181.53196558696504
aF502.9075279378692
aF725.6740707033637
asg5
F1.0
sg6
F0.24959775017739644
sg7
I87
sg8
F0.9674846472389649
sg9
F1.6335000814423912
sg10
F0.19921298424869796
sg11
F0.3101505112211836
saF-312.1176211081861
aa(lp246
(dp247
g3
(lp248
F-161.7209303623382
aF-60.60522456727733
aF-53.92965268349269
aF-22.40272681158831
aF-21.684798514679983
aF72.70955663271775
aF148.1571741546536
aF223.7206232617425
aF511.2945906500365
aF794.5179194580862
asg5
F1.0
sg6
F0.24959775017739644
sg7
I86
sg8
F0.9432504353865001
sg9
F1.628832238771438
sg10
F0.19921298424869796
sg11
F0.30921334376635407
saF-276.25580761310823
aa(lp249
(dp250
g3
(lp251
F-435.94905114764686
aF-181.76304986067362
aF-94.51821543870881
aF-10.576584928089687
aF61.25100766303808
aF85.35860599067928
aF130.541365806557
aF227.36450787084163
aF491.9089708278118
aF816.1181443506377
asg5
F1.0
sg6
F0.2809713847410887
sg7
I87
sg8
F0.8744788205263859
sg9
F1.638005696132539
sg10
F0.17348777062500448
sg11
F0.3155637268186495
saF-712.2303164470293
aa(lp252
(dp253
g3
(lp254
F-162.90000973269616
aF-68.76041223864559
aF-63.5952618145775
aF-49.665101928840045
aF47.52798966833302
aF111.020777675923
aF132.80785149255075
aF140.5375686221205
aF150.33658600690842
aF178.4316951615142
asg5
F0.9547553260017925
sg6
F0.2866920650841742
sg7
I35
sg8
F0.8744788205263859
sg9
F1.630860442211847
sg10
F0.17348777062500448
sg11
F0.3088880392722102
saF-295.25568378591925
aa(lp255
(dp256
g3
(lp257
F-153.16706230481168
aF-124.63482194121093
aF-63.48591881800121
aF-41.531865937193515
aF-32.277446742784946
aF136.55962694097093
aF151.54347556460357
aF193.55039672913813
aF511.2945906500365
aF780.8092848022561
asg5
F1.0
sg6
F0.24959775017739644
sg7
I87
sg8
F0.9330361985504888
sg9
F1.6348990275059363
sg10
F0.19921298424869796
sg11
F0.3101505112211836
saF-341.2878030640238
aa(lp258
(dp259
g3
(lp260
F-206.0493227664366
aF-96.7828700425481
aF-48.34024957202996
aF-33.6474678357813
aF24.051271791113322
aF25.057313632776868
aF67.03064686752714
aF138.19521242766064
aF150.24996059930186
aF158.3748840163537
asg5
F1.0
sg6
F0.30897902425774915
sg7
I35
sg8
F0.8725344366638138
sg9
F1.6348990275059363
sg10
F0.17348777062500448
sg11
F0.30762556732323676
saF-351.17244238101466
aa(lp261
(dp262
g3
(lp263
F-161.7209303623382
aF-87.96254950871128
aF-51.229936915507324
aF-31.20148335403246
aF-22.40272681158831
aF72.70955663271775
aF136.55962694097093
aF223.7206232617425
aF526.7159640240136
aF794.5179194580862
asg5
F0.9972201078017524
sg6
F0.24959775017739644
sg7
I87
sg8
F0.9502604228947269
sg9
F1.6305422610024418
sg10
F0.19921298424869796
sg11
F0.3101505112211836
saF-300.9134167865568
aa(lp264
(dp265
g3
(lp266
F-206.1237888733649
aF-40.984176434553206
aF-36.452100010193476
aF-19.00395447338576
aF47.52798966833302
aF91.30373300332849
aF102.80448096818668
aF150.33658600690842
aF178.4316951615142
aF212.1640260198319
asg5
F0.9824842808116185
sg6
F0.2866920650841742
sg7
I35
sg8
F0.8805060528602926
sg9
F1.6345320376031416
sg10
F0.17348777062500448
sg11
F0.30638741361769545
saF-283.5600653181116
aa(lp267
(dp268
g3
(lp269
F-443.4709972503796
aF-287.4937715066718
aF-230.03783209658968
aF-158.95792848900976
aF-70.18887016026326
aF-30.856909996509444
aF12.270316157183856
aF82.99064752538925
aF425.28331320609936
aF465.9195275175198
asg5
F0.9944402156035049
sg6
F0.2962696082940124
sg7
I61
sg8
F0.8572545961821478
sg9
F1.654581777678721
sg10
F0.18635037743685123
sg11
F0.30006383701479866
saF-961.0026008536411
aa(lp270
(dp271
g3
(lp272
F-161.7209303623382
aF-87.96254950871128
aF-62.4341412371366
aF-51.229936915507324
aF-45.541123810131126
aF72.70955663271775
aF147.8507021142368
aF193.3178206052903
aF502.9075279378692
aF725.6740707033637
asg5
F0.9972201078017524
sg6
F0.24959775017739644
sg7
I89
sg8
F0.9674846472389649
sg9
F1.6321583430571378
sg10
F0.19921298424869796
sg11
F0.3102238940790968
saF-312.1176211081861
aa(lp273
(dp274
g3
(lp275
F-161.7209303623382
aF-87.96254950871128
aF-62.4341412371366
aF-45.541123810131126
aF-39.72969372660407
aF72.70955663271775
aF166.4018245726504
aF193.3178206052903
aF502.9075279378692
aF708.2430194841374
asg5
F0.9912421404058093
sg6
F0.24959775017739644
sg7
I86
sg8
F0.9674846472389649
sg9
F1.6321583430571378
sg10
F0.19921298424869796
sg11
F0.3101505112211836
saF-312.1176211081861
aa(lp276
(dp277
g3
(lp278
F-223.40702167178108
aF-193.1173919686696
aF-137.10274867486248
aF-56.079627945277934
aF35.833187445567546
aF35.850824353490225
aF133.79394164885798
aF223.70001620714197
aF258.8738780751553
aF442.2101208216782
asg5
F1.0
sg6
F0.29880369796755246
sg7
I115
sg8
F0.8976668977463269
sg9
F1.7018306012466626
sg10
F0.19278168084277458
sg11
F0.311556537959843
saF-553.6271623153132
aa(lp279
(dp280
g3
(lp281
F-185.91749230349467
aF-125.15585055170754
aF-96.45907563439562
aF-48.70364101119958
aF7.410602843202128
aF31.949744971281234
aF62.37354750643294
aF102.67028198446701
aF537.3054573057884
aF925.1194788852424
asg5
F1.0
sg6
F0.28077523967526274
sg7
I84
sg8
F0.9325757724926459
sg9
F1.6321583430571378
sg10
F0.19921298424869796
sg11
F0.3101505112211836
saF-407.53241848959783
aa(lp282
(dp283
g3
(lp284
F-161.7209303623382
aF-87.96254950871128
aF-62.4341412371366
aF-51.229936915507324
aF-45.541123810131126
aF72.70955663271775
aF147.8507021142368
aF193.3178206052903
aF502.9075279378692
aF725.6740707033637
asg5
F1.0
sg6
F0.24959775017739644
sg7
I86
sg8
F0.9674846472389649
sg9
F1.6321583430571378
sg10
F0.19921298424869796
sg11
F0.3101505112211836
saF-312.1176211081861
aa(lp285
(dp286
g3
(lp287
F-133.97888907855963
aF-80.91234312199686
aF-78.77512866400082
aF-65.27641540086131
aF-19.0548129143084
aF-7.216523888942447
aF59.47193732143796
aF178.74492398834673
aF441.5322287356298
aF936.8822118431033
asg5
F1.0
sg6
F0.31195272917312905
sg7
I87
sg8
F0.8976668977463269
sg9
F1.6321583430571378
sg10
F0.19921298424869796
sg11
F0.3102238940790968
saF-293.6663608645573
aa(lp288
(dp289
g3
(lp290
F-175.20305438302876
aF-139.94369504325016
aF-101.65733828881525
aF-41.75232589880193
aF0.41557140589952724
aF66.77783976234696
aF71.95244373841297
aF103.36091061428692
aF253.86094799456896
aF280.69932650831447
asg5
F1.0
sg6
F0.24959775017739644
sg7
I35
sg8
F0.9674846472389649
sg9
F1.6387675540341382
sg10
F0.17348777062500448
sg11
F0.30762556732323676
saF-416.80408771509417
aa(lp291
(dp292
g3
(lp293
F-161.7209303623382
aF-87.96254950871128
aF-51.229936915507324
aF-50.855485918347995
aF-32.277446742784946
aF72.70955663271775
aF136.55962694097093
aF181.53196558696504
aF526.7159640240136
aF794.5179194580862
asg5
F0.9888804312070099
sg6
F0.24959775017739644
sg7
I91
sg8
F0.9489794309434465
sg9
F1.6321583430571378
sg10
F0.19921298424869796
sg11
F0.3094107901609229
saF-300.9134167865568
aa(lp294
(dp295
g3
(lp296
F-271.21158443037814
aF-159.510563414099
aF-152.6410163283026
aF-116.36575380591796
aF-68.87799206016791
aF-59.933964434279915
aF4.101235677079671
aF24.048650459359123
aF515.1682598894758
aF627.4874646702388
asg5
F0.855217043205736
sg6
F0.323786379990952
sg7
I68
sg8
F0.781472993813807
sg9
F1.6782061894626918
sg10
F0.17991907403092786
sg11
F0.30006383701479866
saF-583.3631641727798
aa(lp297
(dp298
g3
(lp299
F-161.7209303623382
aF-88.78516057516777
aF-67.10385032631996
aF-51.229936915507324
aF-32.277446742784946
aF51.14810548929677
aF181.901409833936
aF211.39839364476347
aF557.5587107719707
aF777.068309194977
asg5
F0.9912421404058093
sg6
F0.24959775017739644
sg7
I85
sg8
F0.9533142336990316
sg9
F1.630527959082869
sg10
F0.19921298424869796
sg11
F0.3038835770370404
saF-317.60994126382593
aa(lp300
(dp301
g3
(lp302
F-161.7209303623382
aF-87.96254950871128
aF-41.79319469266454
aF-31.20148335403246
aF-22.40272681158831
aF61.87410656572138
aF148.1571741546536
aF223.7206232617425
aF526.7159640240136
aF794.5179194580862
asg5
F0.9888804312070099
sg6
F0.24959775017739644
sg7
I88
sg8
F0.9397268227956874
sg9
F1.6298570898902422
sg10
F0.19921298424869796
sg11
F0.30847368712630363
saF-291.476674563714
aa(lp303
(dp304
g3
(lp305
F-153.16706230481168
aF-124.63482194121093
aF-117.32127491939696
aF-2.9505361716165908
aF-1.84365607527252
aF61.87410656572115
aF148.1571741546536
aF187.40180377629508
aF496.0289887242802
aF610.322309461663
asg5
F1.0
sg6
F0.24959775017739644
sg7
I87
sg8
F0.9170929661575311
sg9
F1.6298570898902422
sg10
F0.19921298424869796
sg11
F0.3112413505174042
saF-395.12315916541957
aa(lp306
(dp307
g3
(lp308
F-161.7209303623382
aF-78.65604491186173
aF-22.40272681158831
aF-21.684798514679983
aF-21.310314372143466
aF61.87410656572138
aF148.1571741546536
aF223.7206232617425
aF545.6421949829905
aF777.0530248648206
asg5
F1.0
sg6
F0.24959775017739644
sg7
I82
sg8
F0.944990363330618
sg9
F1.6300868620404754
sg10
F0.19921298424869796
sg11
F0.30921334376635407
saF-262.77970208578824
aa.