(lp0
(lp1
(dp2
S'winnings'
p3
(lp4
F-103.10016475918178
aF-82.1189224983442
aF-48.97422340087803
aF-42.862384263582044
aF-41.85665584466403
aF-9.36432144997218
aF-3.9182194283993113
aF34.285006871448786
aF68.11207160085974
aF242.1324198795362
asS'end_weight'
p5
F0.855217043205736
sS'close_match_threshold'
p6
F0.323786379990952
sS'history_in_matches'
p7
I35
sS'start_weight'
p8
F0.781472993813807
sS'over_power_threshold'
p9
F1.654581777678721
sS'over_power_extra'
p10
F0.17348777062500448
sS'close_match_trim'
p11
F0.30006383701479866
saF-234.19331065840402
aa(lp12
(dp13
g3
(lp14
F-154.80200236348878
aF-84.42607464652724
aF-61.45216886420917
aF-44.02591565631383
aF-36.8022359267909
aF-33.32989090005378
aF14.73243388754895
aF18.0807593432894
aF161.52332601585545
aF198.6034671812547
asg5
F0.7912162451013134
sg6
F0.3123450193047809
sg7
I35
sg8
F0.781472993813807
sg9
F1.6461245278541756
sg10
F0.17348777062500448
sg11
F0.3155637268186495
saF-300.6802458742252
aa(lp15
(dp16
g3
(lp17
F-163.29624661775995
aF-97.60848144891702
aF-40.74638605928874
aF-36.33701482648041
aF-18.534137323981213
aF-4.882817711447387
aF9.089550591600073
aF51.965473888367114
aF327.81254513179306
aF356.68558650998807
asg5
F1.0
sg6
F0.28565466676197593
sg7
I68
sg8
F0.7074455751787762
sg9
F1.7018306012466626
sg10
F0.18635037743685123
sg11
F0.34444721844393644
saF-301.6511141259657
aa(lp18
(dp19
g3
(lp20
F-161.7209303623382
aF-87.96254950871128
aF-62.4341412371366
aF-55.18212255952585
aF-51.229936915507324
aF72.70955663271775
aF147.8507021142368
aF181.53196558696504
aF502.9075279378692
aF725.6740707033637
asg5
F1.0
sg6
F0.24959775017739644
sg7
I87
sg8
F0.9674846472389649
sg9
F1.6335000814423912
sg10
F0.19921298424869796
sg11
F0.3101505112211836
saF-312.1176211081861
aa(lp21
(dp22
g3
(lp23
F-160.25782247844415
aF-89.6274476942001
aF-76.99841437579971
aF-36.38985814998114
aF14.656630598886636
aF40.86566389443988
aF65.88675564434698
aF81.36680122849998
aF490.5095641699436
aF908.3055305970167
asg5
F1.0
sg6
F0.2710063859460413
sg7
I82
sg8
F0.9674846472389649
sg9
F1.6233693171319141
sg10
F0.19921298424869796
sg11
F0.3063371930512226
saF-326.88368454844397
aa(lp24
(dp25
g3
(lp26
F-182.74711320896745
aF-112.74330015603721
aF-46.67995215274425
aF-35.466439160548134
aF-35.054766278917555
aF-9.59375143018815
aF15.402080746132924
aF69.97641791388378
aF103.2317964390752
aF275.5462305058852
asg5
F1.0
sg6
F0.2809713847410887
sg7
I35
sg8
F0.9674846472389649
sg9
F1.636760849390929
sg10
F0.19921298424869796
sg11
F0.2977872994355447
saF-342.1703655177489
aa(lp27
(dp28
g3
(lp29
F-161.1911566160054
aF-95.32324919703865
aF-91.53455384882125
aF-61.18359329314626
aF-50.812398069786354
aF-27.639364706979222
aF-19.61699790229852
aF228.53419268440075
aF730.3456557724928
aF879.7741615239856
asg5
F1.0
sg6
F0.256652307368035
sg7
I73
sg8
F0.9674846472389649
sg9
F1.636760849390929
sg10
F0.19921298424869796
sg11
F0.29551076185629077
saF-348.0489596618653
aa(lp30
(dp31
g3
(lp32
F-161.44499913467484
aF-108.70346738416072
aF-79.48704996879167
aF-21.684798514681233
aF-13.021742876952203
aF40.53044785809152
aF206.14491022307107
aF223.5499849278192
aF496.0289887242802
aF675.2023635361686
asg5
F0.9649685616232372
sg6
F0.24959775017739644
sg7
I92
sg8
F0.8934637820568916
sg9
F1.6275558367233467
sg10
F0.19921298424869796
sg11
F0.3038835770370404
saF-349.6355164876272
aa(lp33
(dp34
g3
(lp35
F-171.6108402459521
aF-94.19011365818642
aF-87.53974298978551
aF-69.5716555344685
aF-41.21232922317722
aF-37.33252228702088
aF4.696508322444743
aF103.34614957657641
aF138.43368728606333
aF249.41662304431065
asg5
F0.7912162451013134
sg6
F0.3123450193047809
sg7
I35
sg8
F0.781472993813807
sg9
F1.6646932189850046
sg10
F0.17348777062500448
sg11
F0.31242704880043753
saF-353.340696893924
aa(lp36
(dp37
g3
(lp38
F-171.6108402459521
aF-94.19011365818642
aF-87.53974298978551
aF-69.5716555344685
aF-41.21232922317722
aF-37.33252228702088
aF4.696508322444743
aF103.34614957657641
aF138.43368728606333
aF249.41662304431065
asg5
F0.7912162451013134
sg6
F0.3123450193047809
sg7
I35
sg8
F0.781472993813807
sg9
F1.6646932189850046
sg10
F0.17348777062500448
sg11
F0.31242704880043753
saF-353.340696893924
aa(lp39
(dp40
g3
(lp41
F-216.7442054348303
aF-96.49991199619126
aF-43.12346519517769
aF-31.570848499341878
aF-0.19582881503561111
aF41.413373561666276
aF43.01407699619358
aF76.86429555441282
aF188.23065488482075
aF302.03927511626694
asg5
F0.7912162451013134
sg6
F0.3123450193047809
sg7
I35
sg8
F0.781472993813807
sg9
F1.6022049499601443
sg10
F0.17348777062500448
sg11
F0.30006383701479866
saF-356.36758262619924
aa(lp42
(dp43
g3
(lp44
F-216.7442054348303
aF-96.49991199619126
aF-43.12346519517769
aF-31.570848499341878
aF-0.19582881503561111
aF41.413373561666276
aF43.01407699619358
aF76.86429555441282
aF188.23065488482075
aF302.03927511626694
asg5
F0.7912162451013134
sg6
F0.3123450193047809
sg7
I35
sg8
F0.781472993813807
sg9
F1.6022049499601443
sg10
F0.17348777062500448
sg11
F0.30006383701479866
saF-356.36758262619924
aa(lp45
(dp46
g3
(lp47
F-194.60999003622385
aF-95.35878092399025
aF-70.7889044444803
aF-51.42845782865038
aF-30.14144782454798
aF111.85636654101518
aF181.901409833936
aF213.3946790828379
aF480.9175847977722
aF633.7066203833401
asg5
F1.0
sg6
F0.24959775017739644
sg7
I91
sg8
F0.9170929661575311
sg9
F1.636760849390929
sg10
F0.19921298424869796
sg11
F0.28912238350762404
saF-360.7576754046944
aa(lp48
(dp49
g3
(lp50
F-202.28226207201408
aF-86.8480454759474
aF-79.34994190247357
aF-77.89463859924183
aF-67.80900677231557
aF116.67584055433576
aF233.4931296915497
aF259.48510452044775
aF509.63567870269117
aF617.7524541686591
asg5
F1.0
sg6
F0.24959775017739644
sg7
I90
sg8
F0.924785995663548
sg9
F1.636760849390929
sg10
F0.19921298424869796
sg11
F0.26821096647162995
saF-368.48024945043505
aa(lp51
(dp52
g3
(lp53
F-160.343789283938
aF-126.02342151401331
aF-86.69559369861929
aF-16.157023687292167
aF-2.76526183198132
aF40.424208943549274
aF54.72180100393621
aF129.13199685818404
aF490.5095641699436
aF889.7693291633941
asg5
F1.0
sg6
F0.2711244048610197
sg7
I85
sg8
F0.9674846472389649
sg9
F1.6321583430571378
sg10
F0.19921298424869796
sg11
F0.30066425894434745
saF-373.0628044965706
aa(lp54
(dp55
g3
(lp56
F-153.08036072205152
aF-141.87845921856467
aF-79.31992207621931
aF-56.74041848826266
aF-43.01989870719842
aF82.56981619368412
aF161.38354441237152
aF223.46411469700456
aF607.4091169004
aF726.316731983979
asg5
F1.0
sg6
F0.24959775017739644
sg7
I82
sg8
F0.9674846472389649
sg9
F1.6183508240557645
sg10
F0.19921298424869796
sg11
F0.31518729763167486
saF-374.2787420168355
aa(lp57
(dp58
g3
(lp59
F-153.08036072205152
aF-141.87845921856467
aF-79.31992207621931
aF-56.74041848826266
aF-43.01989870719842
aF82.56981619368412
aF161.38354441237152
aF223.46411469700456
aF607.4091169004
aF726.316731983979
asg5
F1.0
sg6
F0.24959775017739644
sg7
I82
sg8
F0.9674846472389649
sg9
F1.6183508240557645
sg10
F0.19921298424869796
sg11
F0.31518729763167486
saF-374.2787420168355
aa(lp60
(dp61
g3
(lp62
F-153.08036072205152
aF-141.87845921856467
aF-79.31992207621931
aF-56.74041848826266
aF-43.01989870719842
aF82.56981619368412
aF161.38354441237152
aF223.46411469700456
aF607.4091169004
aF726.316731983979
asg5
F1.0
sg6
F0.24959775017739644
sg7
I82
sg8
F0.9674846472389649
sg9
F1.6183508240557645
sg10
F0.19921298424869796
sg11
F0.31518729763167486
saF-374.2787420168355
aa(lp63
(dp64
g3
(lp65
F-169.45826269536553
aF-123.37076382774796
aF-87.20449554277775
aF-4.785129796163119
aF7.771294072289493
aF53.25034854534033
aF69.25536912800453
aF103.36314849974406
aF444.15971418582944
aF839.2416062596542
asg5
F1.0
sg6
F0.26036107751920806
sg7
I83
sg8
F0.9674846472389649
sg9
F1.6321583430571378
sg10
F0.19921298424869796
sg11
F0.31518729763167486
saF-380.03352206589125
aa(lp66
(dp67
g3
(lp68
F-148.86843123894278
aF-122.0327858090709
aF-109.20074221921561
aF-10.573314628567005
aF10.892338215709742
aF27.35521790133521
aF63.46422751390787
aF142.6968661097244
aF396.1463844180844
aF754.9557851252036
asg5
F1.0
sg6
F0.28790792301674895
sg7
I87
sg8
F0.9170929661575311
sg9
F1.6325743297994963
sg10
F0.19921298424869796
sg11
F0.3053490297439828
saF-380.1019592672293
aa(lp69
(dp70
g3
(lp71
F-153.08036072205152
aF-141.87845921856467
aF-87.03933581838533
aF-49.56056602212027
aF-43.01989870719842
aF61.87410656572138
aF149.89720731008447
aF223.46411469700456
aF552.7488490174426
aF726.316731983979
asg5
F1.0
sg6
F0.24959775017739644
sg7
I82
sg8
F0.9674846472389649
sg9
F1.6229533303895556
sg10
F0.19921298424869796
sg11
F0.31518729763167486
saF-381.9981557590015
aa(lp72
(dp73
g3
(lp74
F-200.03377068870395
aF-148.10538778787145
aF-34.87376712288847
aF-32.277446742784946
aF-24.47161476313636
aF129.07939215773376
aF170.8755401804367
aF211.0552261622745
aF511.2945906500365
aF643.3537021068048
asg5
F0.9777608624140197
sg6
F0.24959775017739644
sg7
I87
sg8
F0.8934637820568916
sg9
F1.6335000814423912
sg10
F0.19921298424869796
sg11
F0.31870040483686146
saF-383.01292559946387
aa(lp75
(dp76
g3
(lp77
F-181.49013859759145
aF-108.70346738416072
aF-97.12599219424624
aF-13.021742876952203
aF-11.926043387643631
aF37.38685133888498
aF185.44635217920086
aF212.2365511837952
aF496.0289887242802
aF691.6517190304337
asg5
F1.0
sg6
F0.24959775017739644
sg7
I88
sg8
F0.8934637820568916
sg9
F1.6279718234657052
sg10
F0.19921298424869796
sg11
F0.3038835770370404
saF-387.3195981759984
aa(lp78
(dp79
g3
(lp80
F-149.67462248300524
aF-144.0099565443711
aF-94.71012245859117
aF-89.36278957590605
aF-49.60754590509055
aF8.900917097606339
aF24.8134507084942
aF262.98057449048065
aF550.7664645741793
aF655.527755400246
asg5
F1.0
sg6
F0.256652307368035
sg7
I73
sg8
F0.9674846472389649
sg9
F1.6540387991063215
sg10
F0.19921298424869796
sg11
F0.3826489939802548
saF-388.3947014859675
aa(lp81
(dp82
g3
(lp83
F-172.6530134373146
aF-143.15551740339868
aF-78.58158891128744
aF-5.852897222438173
aF8.261711135096903
aF98.07715830904999
aF168.9739881861483
aF272.93962908126605
aF482.71794426146676
aF491.4244160794435
asg5
F0.9078435770852151
sg6
F0.256652307368035
sg7
I100
sg8
F0.7895471070138691
sg9
F1.636760849390929
sg10
F0.19921298424869796
sg11
F0.3826489939802548
saF-394.3901197520007
aa(lp84
(dp85
g3
(lp86
F-168.8251651497568
aF-126.02342151401331
aF-100.50600652768969
aF-22.809669894332615
aF60.3640966925841
aF83.33436872938591
aF117.30674495420135
aF129.13199685818404
aF490.5095641699436
aF852.4763831085638
asg5
F1.0
sg6
F0.2711244048610197
sg7
I84
sg8
F0.9674846472389649
sg9
F1.636760849390929
sg10
F0.19921298424869796
sg11
F0.30006383701479866
saF-395.3545931914598
aa(lp87
(dp88
g3
(lp89
F-181.00849976627217
aF-121.17256486118663
aF-95.38561346430652
aF-39.32202011387449
aF37.474275161027435
aF110.42274504575289
aF129.35263567194465
aF180.4333881920736
aF424.78453911720635
aF843.5529319523223
asg5
F1.0
sg6
F0.29745539242598584
sg7
I82
sg8
F0.9674846472389649
sg9
F1.6275558367233467
sg10
F0.19921298424869796
sg11
F0.30762556732323676
saF-397.5666780917653
aa(lp90
(dp91
g3
(lp92
F-192.49632099952714
aF-127.74515135801346
aF-78.21292684595358
aF-62.46954708003
aF28.58480763244893
aF37.60215735462907
aF46.18979110719533
aF99.99097184015204
aF191.13686150487638
aF361.34179153738955
asg5
F0.8086853465826279
sg6
F0.256652307368035
sg7
I68
sg8
F0.4474065031185874
sg9
F1.7018306012466626
sg10
F0.18635037743685123
sg11
F0.3062454429076181
saF-398.4543992034942
aa(lp93
(dp94
g3
(lp95
F-181.59008983289232
aF-133.4298101664573
aF-87.21249968242898
aF-42.21881137611979
aF-33.4910153793885
aF153.9559477614955
aF162.36012008133753
aF232.48324204875962
aF496.02898872427295
aF708.9134712654377
asg5
F1.0
sg6
F0.24959775017739644
sg7
I90
sg8
F0.8743943145821143
sg9
F1.636760849390929
sg10
F0.19921298424869796
sg11
F0.31009215588240086
saF-402.2323996817786
aa(lp96
(dp97
g3
(lp98
F-199.7704506658896
aF-131.41520763024403
aF-72.10006467672156
aF-43.86296338600289
aF-22.40272681158831
aF51.78334979564784
aF194.89287477180505
aF248.09752810759232
aF526.7159640240136
aF729.9657476795956
asg5
F0.9555217248280394
sg6
F0.24959775017739644
sg7
I92
sg8
F0.8934637820568916
sg9
F1.6275558367233467
sg10
F0.19921298424869796
sg11
F0.31870040483686146
saF-403.2857229728552
aa(lp99
(dp100
g3
(lp101
F-199.7704506658896
aF-131.41520763024403
aF-72.10006467672156
aF-43.86296338600289
aF-22.40272681158831
aF51.78334979564784
aF194.89287477180505
aF248.09752810759232
aF526.7159640240136
aF729.9657476795956
asg5
F0.9555217248280394
sg6
F0.24959775017739644
sg7
I87
sg8
F0.8934637820568916
sg9
F1.6275558367233467
sg10
F0.19921298424869796
sg11
F0.31870040483686146
saF-403.2857229728552
aa(lp102
(dp103
g3
(lp104
F-173.48812244197904
aF-151.1714308940975
aF-79.8404429317959
aF-60.81523104816495
aF34.13656242633169
aF59.32645679307302
aF70.17722419450342
aF152.2141913571054
aF391.52000064158096
aF597.8390953158776
asg5
F1.0
sg6
F0.28790792301674895
sg7
I87
sg8
F0.9170929661575311
sg9
F1.6325743297994963
sg10
F0.19921298424869796
sg11
F0.3439990118621188
saF-404.49999626787246
aa(lp105
(dp106
g3
(lp107
F-185.61286207972694
aF-115.32459834815256
aF-104.20479155354201
aF-49.39068963455475
aF-19.53327187238108
aF134.5097056243235
aF170.1351060819477
aF187.61470493364118
aF546.3631537001677
aF613.7170624185298
asg5
F1.0
sg6
F0.24959775017739644
sg7
I96
sg8
F0.9674846472389649
sg9
F1.6713167488217138
sg10
F0.19921298424869796
sg11
F0.3100338005436181
saF-405.1422519814215
aa(lp108
(dp109
g3
(lp110
F-185.61286207972694
aF-115.32459834815256
aF-104.20479155354201
aF-49.39068963455475
aF-19.53327187238108
aF134.5097056243235
aF170.1351060819477
aF187.61470493364118
aF546.3631537001677
aF613.7170624185298
asg5
F1.0
sg6
F0.24959775017739644
sg7
I96
sg8
F0.9674846472389649
sg9
F1.6713167488217138
sg10
F0.19921298424869796
sg11
F0.3100338005436181
saF-405.1422519814215
aa(lp111
(dp112
g3
(lp113
F-159.85557314690925
aF-150.4199935959009
aF-98.47286825913409
aF-80.21836930109191
aF-41.254073152047226
aF23.89815960650185
aF105.9406567015235
aF122.06727873892464
aF198.7208639400494
aF282.2269943368667
asg5
F0.855217043205736
sg6
F0.323786379990952
sg7
I35
sg8
F0.7360413751770162
sg9
F1.654581777678721
sg10
F0.16062516381315775
sg11
F0.31374881787727343
saF-408.74843500194424
aa(lp114
(dp115
g3
(lp116
F-177.84757317318895
aF-132.22560459716476
aF-102.62800977494669
aF-22.45979866980622
aF32.22530555388448
aF131.54147971112457
aF149.7748141697225
aF164.81665904469128
aF464.58217479047835
aF855.948382103124
asg5
F1.0
sg6
F0.256652307368035
sg7
I89
sg8
F0.9674846472389649
sg9
F1.636760849390929
sg10
F0.19921298424869796
sg11
F0.3039689053283642
saF-412.7011875453004
aa(lp117
(dp118
g3
(lp119
F-193.948441871059
aF-112.74330015603721
aF-106.20438715457863
aF-67.09396349231349
aF-35.466439160548134
aF-19.461510009099243
aF-9.59375143018815
aF78.71553429598475
aF80.89454462729054
aF275.5462305058852
asg5
F1.0
sg6
F0.28449866333640794
sg7
I35
sg8
F0.9674846472389649
sg9
F1.636760849390929
sg10
F0.19921298424869796
sg11
F0.2977872994355447
saF-412.89612918167484
aa(lp120
(dp121
g3
(lp122
F-171.763369358286
aF-132.00463469166436
aF-109.8254517171573
aF-97.5296725244973
aF-81.88373561847789
aF19.888421351080183
aF140.4376675511271
aF237.96692107832087
aF428.8317118555883
aF533.1427266761154
asg5
F1.0
sg6
F0.31512855167511855
sg7
I96
sg8
F0.6215248346836739
sg9
F1.6022049499601443
sg10
F0.19921298424869796
sg11
F0.3247902605860764
saF-413.5934557671077
aa(lp123
(dp124
g3
(lp125
F-177.84757317318895
aF-160.8599215700924
aF-77.23091245533567
aF-12.484898656232758
aF3.2846194051079465
aF109.11190800548115
aF143.08782134082935
aF164.18809510776873
aF511.2945906500347
aF708.9134712654375
asg5
F1.0
sg6
F0.256652307368035
sg7
I89
sg8
F0.924785995663548
sg9
F1.636760849390929
sg10
F0.19921298424869796
sg11
F0.3101505112211836
saF-415.938407198617
aa(lp126
(dp127
g3
(lp128
F-150.01221475095417
aF-138.50741334624195
aF-127.75654840663628
aF-114.41647166297764
aF15.540272915941046
aF69.92894035971017
aF71.36678356343964
aF156.9391473217588
aF173.15651191521965
aF206.4039495047216
asg5
F0.8053300590494157
sg6
F0.29155118664415364
sg7
I35
sg8
F0.6775780093927131
sg9
F1.6646932189850046
sg10
F0.17348777062500448
sg11
F0.31242704880043753
saF-416.2761765038324
aa(lp129
(dp130
g3
(lp131
F-164.70062977873874
aF-127.58985544548216
aF-124.63482194121093
aF-48.72778659318237
aF33.30580796759773
aF72.70955663271661
aF171.7085031122174
aF185.44635217920086
aF526.7159640240127
aF643.3537021068048
asg5
F0.9777608624140197
sg6
F0.2531250287727157
sg7
I88
sg8
F0.8934637820568916
sg9
F1.6275558367233467
sg10
F0.19921298424869796
sg11
F0.31442545802902255
saF-416.92530716543183
aa(lp132
(dp133
g3
(lp134
F-181.59008983289232
aF-148.2282685313678
aF-87.21249968242898
aF-32.44553394118054
aF-13.477445495831148
aF125.41468839171239
aF153.9559477614955
aF232.48324204875962
aF481.2679725553146
aF708.9134712654377
asg5
F1.0
sg6
F0.24959775017739644
sg7
I91
sg8
F0.8667012850760972
sg9
F1.636760849390929
sg10
F0.19921298424869796
sg11
F0.3100338005436181
saF-417.0308580466891
aa(lp135
(dp136
g3
(lp137
F-196.51384318542068
aF-133.37069641278913
aF-87.63252669757708
aF-6.431745336019617
aF47.91106826175451
aF73.19465250305689
aF92.09242087383564
aF106.80970141584521
aF600.4049954419306
aF669.4879119116194
asg5
F1.0
sg6
F0.2670482067569022
sg7
I96
sg8
F0.9674846472389649
sg9
F1.6713167488217138
sg10
F0.19921298424869796
sg11
F0.3070013529359912
saF-417.5170662957869
aa(lp138
(dp139
g3
(lp140
F-186.5793809890033
aF-124.25634074597917
aF-106.89713995202987
aF-32.19374560851395
aF37.21916384678957
aF67.77011465984219
aF172.4666491145697
aF177.94949064673256
aF245.73129618160533
aF291.6169986991604
asg5
F0.819443872997518
sg6
F0.256652307368035
sg7
I35
sg8
F0.7371340251650053
sg9
F1.6334490844725744
sg10
F0.17348777062500448
sg11
F0.31860865469325694
saF-417.73286168701236
aa(lp141
(dp142
g3
(lp143
F-186.5793809890033
aF-124.25634074597917
aF-106.89713995202987
aF-32.19374560851395
aF37.21916384678957
aF67.77011465984219
aF172.4666491145697
aF177.94949064673256
aF245.73129618160533
aF291.6169986991604
asg5
F0.819443872997518
sg6
F0.256652307368035
sg7
I35
sg8
F0.7371340251650053
sg9
F1.6334490844725744
sg10
F0.17348777062500448
sg11
F0.31860865469325694
saF-417.73286168701236
aa(lp144
(dp145
g3
(lp146
F-184.09342875779225
aF-126.22174380030685
aF-109.1523388451294
aF16.175101959743984
aF63.67585691804766
aF81.64824826630934
aF101.80950986547282
aF121.22159360750265
aF382.0438956865896
aF737.2289590128287
asg5
F1.0
sg6
F0.29229002365716367
sg7
I87
sg8
F0.8934637820568916
sg9
F1.636760849390929
sg10
F0.19921298424869796
sg11
F0.30510717411799115
saF-419.4675114032285
aa(lp147
(dp148
g3
(lp149
F-161.63510455314452
aF-141.87845921856467
aF-116.7070836055168
aF-56.74041848826266
aF-43.01989870719842
aF93.61644697117163
aF149.65239749911643
aF223.46411469700456
aF555.8132687035973
aF743.2829897921749
asg5
F1.0
sg6
F0.24959775017739644
sg7
I96
sg8
F0.9674846472389649
sg9
F1.6183508240557645
sg10
F0.19921298424869796
sg11
F0.3126105490876465
saF-420.220647377226
aa(lp150
(dp151
g3
(lp152
F-191.78811102165992
aF-156.36511879481145
aF-72.10006467672156
aF-43.86296338600289
aF-17.607104310334194
aF51.78334979564784
aF161.11498431889504
aF248.09752810759232
aF580.4598155345448
aF729.9657476795956
asg5
F0.9555217248280394
sg6
F0.24959775017739644
sg7
I92
sg8
F0.8934637820568916
sg9
F1.6183508240557645
sg10
F0.19921298424869796
sg11
F0.31870040483686146
saF-420.2532944931929
aa(lp153
(dp154
g3
(lp155
F-158.9242874165028
aF-133.56256681420757
aF-128.5761652403744
aF-123.14811913980884
aF-82.4326513786649
aF-62.99842699916519
aF149.35142799842606
aF190.7705630782566
aF384.2247272483921
aF896.5766203938829
asg5
F1.0
sg6
F0.32645006592027226
sg7
I87
sg8
F0.9674846472389649
sg9
F1.6275558367233467
sg10
F0.19921298424869796
sg11
F0.30066425894434745
saF-421.0630194710848
aa(lp156
(dp157
g3
(lp158
F-169.37322906008285
aF-156.23713872394262
aF-96.21833913624835
aF-58.123067713249156
aF-16.86410890170464
aF54.07688443314146
aF111.0893457317718
aF162.07367990322155
aF526.7159640240127
aF677.0626441429408
asg5
F1.0
sg6
F0.256652307368035
sg7
I84
sg8
F0.924785995663548
sg9
F1.6229533303895556
sg10
F0.19921298424869796
sg11
F0.31518729763167486
saF-421.8287069202738
aa(lp159
(dp160
g3
(lp161
F-213.4058161865495
aF-120.52238036715846
aF-91.66428809507318
aF-88.64943743881281
aF-76.0415134697439
aF128.07049198856566
aF220.26238500251316
aF233.4931296915497
aF525.0401244037407
aF617.7524541686591
asg5
F1.0
sg6
F0.2531250287727157
sg7
I89
sg8
F0.924785995663548
sg9
F1.636760849390929
sg10
F0.19921298424869796
sg11
F0.26821096647162995
saF-425.5924846487811
aa(lp162
(dp163
g3
(lp164
F-502.14422488129645
aF-284.31034031776926
aF-262.71124475287934
aF-200.5984836346579
aF-188.7701469291609
aF35.479917691998025
aF38.29094709827041
aF159.50893659093617
aF191.91966690154345
aF1008.1173786580587
asg5
F0.927608521602868
sg6
F0.24959775017739644
sg7
I58
sg8
F0.8744788205263859
sg9
F1.6183508240557645
sg10
F0.19921298424869796
sg11
F0.30006383701479866
saF-1049.165809951945
aa(lp165
(dp166
g3
(lp167
F-248.49701877869722
aF-233.48629616199435
aF-172.12627539446112
aF-161.02510500767914
aF-1.4116520697992883
aF43.08771752447069
aF57.84137377044726
aF134.8577568774624
aF313.80091254252693
aF361.1854249123587
asg5
F0.8053300590494157
sg6
F0.24959775017739644
sg7
I35
sg8
F0.6775780093927131
sg9
F1.6415220215203845
sg10
F0.18635037743685123
sg11
F0.3138071732160562
saF-654.1095903351527
aa(lp168
(dp169
g3
(lp170
F-142.73651078133378
aF-133.56256681420757
aF-101.87232031774965
aF-97.69555882954398
aF-96.3229041157017
aF-96.03088089702965
aF116.64376344434982
aF179.45493154840187
aF384.2247272483921
aF934.0019964389817
asg5
F1.0
sg6
F0.32645006592027226
sg7
I87
sg8
F0.9461353214512565
sg9
F1.6252545835564511
sg10
F0.19921298424869796
sg11
F0.30792577828801115
saF-378.171397913291
aa(lp171
(dp172
g3
(lp173
F-198.055941199313
aF-83.48718292582475
aF-34.571604079861004
aF-16.37340703945347
aF43.73259840141827
aF111.020777675923
aF121.58697149131831
aF150.33658600690842
aF191.06271835860548
aF212.39435623688678
asg5
F0.927608521602868
sg6
F0.2866920650841742
sg7
I35
sg8
F0.8744788205263859
sg9
F1.6229533303895556
sg10
F0.17348777062500448
sg11
F0.30762556732323676
saF-316.11472820499876
aa(lp174
(dp175
g3
(lp176
F-135.48115471554172
aF-116.93651364561208
aF-95.92967121476875
aF-19.552700449832173
aF6.8041624231641435
aF89.22421328307837
aF106.73186982623861
aF114.02488498844787
aF496.31891682286755
aF756.2798334734268
asg5
F0.9824842808116185
sg6
F0.2687528365970727
sg7
I87
sg8
F0.8934637820568916
sg9
F1.6325743297994963
sg10
F0.19921298424869796
sg11
F0.3046163033905116
saF-348.34733957592255
aa(lp177
(dp178
g3
(lp179
F-254.49296563723965
aF-106.29729833129522
aF-83.88833800477175
aF-40.97821786141026
aF20.175056557729704
aF146.08633527355164
aF150.63016394954752
aF182.0752602256423
aF654.9078216796404
aF656.0082531632638
asg5
F1.0
sg6
F0.2531250287727157
sg7
I90
sg8
F0.9674846472389649
sg9
F1.6690172983651657
sg10
F0.19921298424869796
sg11
F0.31518729763167486
saF-444.6786019733066
aa(lp180
(dp181
g3
(lp182
F-166.4804217497583
aF-152.68260775697672
aF-133.37069641278913
aF-65.11995627468082
aF33.24258620794285
aF85.81462923931304
aF105.88146659194012
aF128.72001591326216
aF524.6440909557584
aF863.0759495561533
asg5
F1.0
sg6
F0.2670482067569022
sg7
I84
sg8
F0.9674846472389649
sg9
F1.6540387991063215
sg10
F0.19921298424869796
sg11
F0.3070013529359912
saF-452.53372591952416
aa(lp183
(dp184
g3
(lp185
F-189.37367199077516
aF-172.12627539446078
aF-162.89924783412812
aF-126.25351614501551
aF-53.21953038552988
aF27.344928290231564
aF133.35866653336598
aF137.56346975145084
aF381.22191947198553
aF466.93485859116663
asg5
F1.0
sg6
F0.26036107751920806
sg7
I35
sg8
F0.8523093362019851
sg9
F1.6334490844725744
sg10
F0.18635037743685123
sg11
F0.31860865469325694
saF-524.3991952193641
aa(lp186
(dp187
g3
(lp188
F-240.52871657686228
aF-182.16217750869112
aF-95.40125978090089
aF-56.40790250545035
aF-55.1698570834825
aF-50.73252861752269
aF37.546212633308414
aF74.72219041137487
aF123.02070843559841
aF272.3641417384972
asg5
F0.7912162451013134
sg6
F0.3019481029744673
sg7
I35
sg8
F0.72952550160326
sg9
F1.6022049499601443
sg10
F0.17348777062500448
sg11
F0.31242704880043753
saF-518.0921538664543
aa(lp189
(dp190
g3
(lp191
F-171.73504044373897
aF-170.01661635578364
aF-124.64793833948795
aF-89.11256491339338
aF-14.606388215124412
aF147.8507021142368
aF202.60984009694175
aF236.29654779522093
aF537.3259835467554
aF725.6740707033625
asg5
F1.0
sg6
F0.24959775017739644
sg7
I96
sg8
F0.9674846472389649
sg9
F1.6496442861437095
sg10
F0.19921298424869796
sg11
F0.3100338005436181
saF-466.39959513901056
aa(lp192
(dp193
g3
(lp194
F-153.08036072205152
aF-141.87845921856467
aF-107.6938905810847
aF-56.74041848826266
aF-43.01989870719842
aF93.61644697117163
aF180.15337947358535
aF223.46411469700456
aF571.6889143026126
aF725.6740707033632
asg5
F0.9555217248280394
sg6
F0.24959775017739644
sg7
I87
sg8
F0.9304742146479282
sg9
F1.6183508240557645
sg10
F0.19921298424869796
sg11
F0.31518729763167486
saF-402.6527105217009
aa(lp195
(dp196
g3
(lp197
F-192.44583349380014
aF-165.25440752882878
aF-160.48965393466608
aF-157.99521990265453
aF1.0307475996535231
aF41.17573289474399
aF71.05415879096631
aF128.26667642596954
aF384.62356159588194
aF641.2844180659615
asg5
F1.0
sg6
F0.28565466676197593
sg7
I84
sg8
F0.7074455751787762
sg9
F1.6692957253187957
sg10
F0.19278168084277458
sg11
F0.30006383701479866
saF-518.189894957295
aa(lp198
(dp199
g3
(lp200
F-153.08036072205152
aF-141.87845921856467
aF-79.31992207621931
aF-56.74041848826266
aF-43.01989870719842
aF82.56981619368412
aF161.38354441237152
aF223.46411469700456
aF607.4091169004
aF726.316731983979
asg5
F1.0
sg6
F0.24959775017739644
sg7
I82
sg8
F0.9674846472389649
sg9
F1.6183508240557645
sg10
F0.19921298424869796
sg11
F0.3138989233596607
saF-374.2787420168355
aa(lp201
(dp202
g3
(lp203
F-227.0839314887445
aF-203.8880819770792
aF-120.91249757430376
aF-77.18220710649553
aF40.92855245314013
aF77.19114242940373
aF90.90769120289156
aF95.43694924873807
aF300.57827855961114
aF411.01215991945355
asg5
F0.9555217248280394
sg6
F0.24959775017739644
sg7
I35
sg8
F0.8934637820568916
sg9
F1.6183508240557645
sg10
F0.18635037743685123
sg11
F0.30006383701479866
saF-551.8845110401274
aa(lp204
(dp205
g3
(lp206
F-253.77384606836904
aF-196.27910842871586
aF-168.89518142944053
aF-155.14658017212219
aF18.288058882614678
aF72.59956787950819
aF84.20535155734251
aF186.93297105852866
aF192.78351662436444
aF249.4265538214613
asg5
F1.0
sg6
F0.256652307368035
sg7
I35
sg8
F0.781472993813807
sg9
F1.6646932189850046
sg10
F0.18635037743685123
sg11
F0.3081979770644009
saF-618.9481359265254
aa(lp207
(dp208
g3
(lp209
F-253.8066203116565
aF-145.9523863061512
aF-50.080766789133236
aF-5.939238829438068
aF-1.3744508717112467
aF5.078782318874005
aF16.8473316740683
aF75.0428066931538
aF158.76589575099797
aF185.36308899936853
asg5
F1.0
sg6
F0.27066623113014837
sg7
I35
sg8
F0.9674846472389649
sg9
F1.6344595962240334
sg10
F0.19921298424869796
sg11
F0.3064872985336098
saF-449.83977340694094
aa(lp210
(dp211
g3
(lp212
F-139.73526538669626
aF-95.93959101401742
aF-63.68823425357277
aF-46.207060523669725
aF-19.757577967071597
aF9.989377179289932
aF22.488517315068407
aF207.31546592596578
aF650.8298548242137
aF807.4185668597863
asg5
F0.9777608624140197
sg6
F0.25488866807037536
sg7
I73
sg8
F0.9304742146479282
sg9
F1.6275558367233467
sg10
F0.19921298424869796
sg11
F0.34853722600463866
saF-299.36309065428645
aa(lp213
(dp214
g3
(lp215
F-186.86760049179338
aF-115.3218213119901
aF-90.55921345818274
aF-79.37310288285789
aF-64.72573748316597
aF56.57616063474393
aF193.3178206052903
aF193.64292989984347
aF487.7266438172858
aF821.8785884552904
asg5
F1.0
sg6
F0.24959775017739644
sg7
I87
sg8
F0.9674846472389649
sg9
F1.6321583430571378
sg10
F0.19921298424869796
sg11
F0.29489332122598577
saF-392.74863526196623
aa(lp216
(dp217
g3
(lp218
F-211.18867826874248
aF-148.10538778787145
aF-99.21551598136273
aF-24.47161476313636
aF-13.021742876952203
aF129.07939215773376
aF176.78905300962583
aF185.31356787014647
aF511.2945906500365
aF643.3537021068048
asg5
F0.9888804312070099
sg6
F0.24959775017739644
sg7
I89
sg8
F0.8934637820568916
sg9
F1.6335000814423912
sg10
F0.19921298424869796
sg11
F0.31870040483686146
saF-458.50958203797666
aa(lp219
(dp220
g3
(lp221
F-191.87084998144644
aF-148.10538778787145
aF-34.87376712288847
aF-34.10646301238887
aF-32.277446742784946
aF129.07939215773376
aF170.8755401804367
aF199.1118807366115
aF511.2945906500365
aF643.3537021068048
asg5
F1.0
sg6
F0.24959775017739644
sg7
I87
sg8
F0.921477655973086
sg9
F1.6335000814423912
sg10
F0.19921298424869796
sg11
F0.31870040483686146
saF-374.85000489220636
aa(lp222
(dp223
g3
(lp224
F-365.74346597284887
aF-255.64562487559135
aF-111.7293561821516
aF-65.89002150123883
aF-60.008151336672086
aF-37.401442936862054
aF11.676990562242736
aF81.18992171223726
aF493.7151139510429
aF509.7809865950742
asg5
F1.0
sg6
F0.323786379990952
sg7
I87
sg8
F0.8517630112079906
sg9
F1.6410688072010338
sg10
F0.16062516381315775
sg11
F0.31374881787727343
saF-733.1184470305918
aa(lp225
(dp226
g3
(lp227
F-173.13799715471066
aF-133.4298101664573
aF-99.93517881932212
aF7.223437949081358
aF8.341612740284972
aF58.666027693920796
aF185.44635217920086
aF189.2170321046824
aF511.2945906500365
aF643.3537021068048
asg5
F1.0
sg6
F0.24959775017739644
sg7
I91
sg8
F0.8934637820568916
sg9
F1.6275558367233467
sg10
F0.19921298424869796
sg11
F0.3143671026902398
saF-406.50298614049007
aa(lp228
(dp229
g3
(lp230
F-193.06528811134046
aF-189.67156909491814
aF-172.51778601112972
aF-132.6665437442466
aF-74.5105478207604
aF0.6456408075590616
aF92.62820946434817
aF160.4564538195507
aF221.7484704884289
aF246.68587670639158
asg5
F0.909721936498759
sg6
F0.2705754853522215
sg7
I35
sg8
F0.7371340251650053
sg9
F1.636760849390929
sg10
F0.18635037743685123
sg11
F0.31860865469325694
saF-555.2546432173883
aa(lp231
(dp232
g3
(lp233
F-223.26092928285254
aF-115.32459834815256
aF-83.88833800477175
aF-40.97821786141026
aF4.2270404948512805
aF134.5097056243235
aF150.63016394954752
aF158.31555955586737
aF581.495458066539
aF676.5372810950398
asg5
F1.0
sg6
F0.2531250287727157
sg7
I82
sg8
F0.9674846472389649
sg9
F1.6713167488217138
sg10
F0.19921298424869796
sg11
F0.30813962172561815
saF-422.47386563577686
aa(lp234
(dp235
g3
(lp236
F-398.2917277737672
aF-248.49243255587885
aF-159.68176572013954
aF-47.37442263694186
aF-8.546853563574928
aF55.51132125643517
aF106.9410312789521
aF213.68969059298047
aF579.7682260356089
aF615.6102387934736
asg5
F0.9649685616232372
sg6
F0.2866920650841742
sg7
I92
sg8
F0.7360413751770162
sg9
F1.654581777678721
sg10
F0.17991907403092786
sg11
F0.31374881787727343
saF-806.4659260497856
aa(lp237
(dp238
g3
(lp239
F-288.4301126884901
aF-234.01417761467735
aF-171.97022861219364
aF-88.20487421188648
aF47.896688398449896
aF90.45322404092371
aF133.44156347601597
aF175.4864360899869
aF562.1240063257528
aF692.7743641127522
asg5
F1.0
sg6
F0.2809713847410887
sg7
I92
sg8
F0.8934637820568916
sg9
F1.6646932189850046
sg10
F0.18635037743685123
sg11
F0.3155637268186495
saF-694.4145189153611
aa(lp240
(dp241
g3
(lp242
F-395.52233984853854
aF-359.1517355975941
aF-203.499709345204
aF-152.66523357483345
aF-109.41624855334612
aF-52.99706857796957
aF-50.180220192130264
aF-45.70767722856942
aF273.1981587537689
aF457.486605474058
asg5
F0.909721936498759
sg6
F0.272280115192392
sg7
I61
sg8
F0.7371340251650053
sg9
F1.6330117071360353
sg10
F0.17348777062500448
sg11
F0.3053490297439828
saF-958.1737847913366
aa(lp243
(dp244
g3
(lp245
F-135.48115471554172
aF-116.73627249224421
aF-58.975676398294354
aF7.410602843202696
aF10.781883474081951
aF75.13378496192308
aF103.03844628047455
aF111.56669246016486
aF490.5095641699436
aF688.9532636780432
asg5
F0.9888804312070099
sg6
F0.2687528365970727
sg7
I87
sg8
F0.9170929661575311
sg9
F1.6330372056209437
sg10
F0.19921298424869796
sg11
F0.31202471729042214
saF-311.1931036060803
aa(lp246
(dp247
g3
(lp248
F-226.35363695866454
aF-207.95030932612383
aF-91.18741006736445
aF-76.45438017114373
aF2.381147389149305
aF170.8755401804367
aF177.93868269285508
aF214.2618721022934
aF643.3537021068089
aF647.5600935205593
asg5
F0.9777608624140197
sg6
F0.24959775017739644
sg7
I91
sg8
F0.8934637820568916
sg9
F1.6494362927725303
sg10
F0.19921298424869796
sg11
F0.31870040483686146
saF-525.4913563521528
aa(lp249
(dp250
g3
(lp251
F-186.56011487416697
aF-95.35878092399025
aF-70.7889044444803
aF-60.79706565256663
aF-30.14144782454798
aF111.85636654101518
aF181.901409833936
aF225.77625744082434
aF480.9175847977722
aF633.7066203833401
asg5
F0.9649685616232372
sg6
F0.24959775017739644
sg7
I92
sg8
F0.8934637820568916
sg9
F1.636760849390929
sg10
F0.19921298424869796
sg11
F0.28912238350762404
saF-352.7078002426375
aa(lp252
(dp253
g3
(lp254
F-161.63510455314452
aF-141.87845921856467
aF-88.6197208431272
aF-56.74041848826266
aF-43.01989870719842
aF82.56981619368412
aF149.65239749911643
aF223.46411469700456
aF591.1726611741315
aF726.316731983979
asg5
F1.0
sg6
F0.24959775017739644
sg7
I82
sg8
F0.9674846472389649
sg9
F1.6183508240557645
sg10
F0.19921298424869796
sg11
F0.3126105490876465
saF-392.1332846148364
aa(lp255
(dp256
g3
(lp257
F-223.09272972519602
aF-178.86037333611011
aF-86.99607729069874
aF-79.47518598866259
aF33.514160096960495
aF38.31188498646475
aF133.07425773849627
aF185.38785111559469
aF526.7159640240127
aF827.8662457912073
asg5
F0.9777608624140197
sg6
F0.256652307368035
sg7
I88
sg8
F0.9091248888602198
sg9
F1.6252545835564511
sg10
F0.19921298424869796
sg11
F0.31870040483686146
saF-488.9491803520049
aa(lp258
(dp259
g3
(lp260
F-152.99175936099812
aF-137.87154170493443
aF-42.05242202821023
aF-31.751578854919558
aF40.191606545329705
aF148.15717415465633
aF151.54347556460357
aF213.3946790828379
aF511.2945906500365
aF626.7541697622939
asg5
F1.0
sg6
F0.24959775017739644
sg7
I90
sg8
F0.9209394809105396
sg9
F1.636760849390929
sg10
F0.19921298424869796
sg11
F0.31518729763167486
saF-332.9157230941428
aa(lp261
(dp262
g3
(lp263
F-177.76339846351584
aF-114.25653883377379
aF-67.69838741506942
aF-45.781769863917134
aF-8.736327641055254
aF32.08002728593783
aF96.267524867475
aF126.32280569271325
aF429.57224232536805
aF856.6395590665197
asg5
F1.0
sg6
F0.26030206806171885
sg7
I82
sg8
F0.9674846472389649
sg9
F1.6233693171319141
sg10
F0.19921298424869796
sg11
F0.3038835770370404
saF-359.71832471235905
aa(lp264
(dp265
g3
(lp266
F-275.7534844201365
aF-137.23761473784646
aF-68.17538483570354
aF-36.54515271945968
aF-25.533846360604798
aF-19.597854951095655
aF-18.947005306280175
aF19.10964254543262
aF152.01798385553525
aF197.39142560936534
asg5
F1.0
sg6
F0.275988885343565
sg7
I35
sg8
F0.9674846472389649
sg9
F1.636760849390929
sg10
F0.19921298424869796
sg11
F0.3020622462433836
saF-481.1664839936865
aa(lp267
(dp268
g3
(lp269
F-414.7784245758686
aF-351.70025858579686
aF-307.65152573366174
aF-136.09962358673602
aF-119.81322888764907
aF-57.3051519266063
aF-33.017359794140134
aF-22.312831304168526
aF480.78833276354
aF623.4603763301545
asg5
F1.0
sg6
F0.2809713847410887
sg7
I62
sg8
F0.8279336541979606
sg9
F1.6022049499601443
sg10
F0.18635037743685123
sg11
F0.30006383701479866
saF-1074.130208895327
aa(lp270
(dp271
g3
(lp272
F-447.2617233988037
aF-433.6328709725376
aF-274.1128855702236
aF-215.7422190181079
aF-148.9232069363461
aF-148.8760415491612
aF-44.676849079767976
aF-7.066384077168436
aF233.3269950480983
aF894.9193406438417
asg5
F1.0
sg6
F0.256652307368035
sg7
I62
sg8
F0.9674846472389649
sg9
F1.636760849390929
sg10
F0.19921298424869796
sg11
F0.30087810238195445
saF-1155.007479941565
aa(lp273
(dp274
g3
(lp275
F-164.88999712632858
aF-141.8318314541316
aF-91.1368912222481
aF-17.607104310334194
aF-17.462404908580993
aF79.29921251938572
aF146.3518448200998
aF155.59958950101827
aF572.7614129256408
aF643.3537021068048
asg5
F1.0
sg6
F0.24959775017739644
sg7
I92
sg8
F0.8934637820568916
sg9
F1.6150883867129249
sg10
F0.19921298424869796
sg11
F0.3143369188115584
saF-397.85871980270826
aa(lp276
(dp277
g3
(lp278
F-495.0489361457777
aF-429.922130779328
aF-244.6990249963494
aF-205.58119313574673
aF-128.28685071075506
aF-121.3762006230179
aF-0.13202008903112983
aF73.04506788688536
aF335.0782979499793
aF878.3135100631007
asg5
F1.0
sg6
F0.2705754853522215
sg7
I62
sg8
F0.924785995663548
sg9
F1.636760849390929
sg10
F0.19921298424869796
sg11
F0.3039689053283642
saF-1169.670091921455
aa(lp279
(dp280
g3
(lp281
F-263.7536752504178
aF-177.4877180565892
aF-158.95997390948105
aF-127.50318367827379
aF-25.60970521344325
aF-15.980303910047951
aF95.23177813795132
aF130.34368242242476
aF416.4118286711994
aF427.9573116720019
asg5
F1.0
sg6
F0.2823631509262575
sg7
I91
sg8
F0.7945047409613194
sg9
F1.6022049499601443
sg10
F0.19921298424869796
sg11
F0.3247902605860764
saF-600.201367216488
aa(lp282
(dp283
g3
(lp284
F-218.35869611455678
aF-97.17788300814539
aF-74.88920576513169
aF-26.34561544387475
aF-21.194747536524346
aF134.81261566629814
aF158.31555955586737
aF199.69500912378794
aF609.6179076842618
aF622.7225041710024
asg5
F1.0
sg6
F0.24959775017739644
sg7
I96
sg8
F0.9304742146479282
sg9
F1.6713167488217138
sg10
F0.19921298424869796
sg11
F0.31442545802902255
saF-390.42578488783386
aa(lp285
(dp286
g3
(lp287
F-161.99378789151672
aF-133.30092277279323
aF-73.38852856175754
aF-25.613090087028922
aF6.8041624231641435
aF69.64896818321722
aF108.18818524321068
aF148.45685279072063
aF481.20458432970463
aF785.535018785562
asg5
F1.0
sg6
F0.27094388691728005
sg7
I88
sg8
F0.8839290483195029
sg9
F1.636760849390929
sg10
F0.19921298424869796
sg11
F0.307599665000196
saF-368.6832392260675
aa(lp288
(dp289
g3
(lp290
F-159.85557314690925
aF-150.4199935959009
aF-98.47286825913409
aF-80.21836930109191
aF-41.254073152047226
aF23.89815960650185
aF105.9406567015235
aF122.06727873892464
aF198.7208639400494
aF282.2269943368667
asg5
F0.855217043205736
sg6
F0.323786379990952
sg7
I35
sg8
F0.7360413751770162
sg9
F1.654581777678721
sg10
F0.16062516381315775
sg11
F0.31374881787727343
saF-408.74843500194424
aa(lp291
(dp292
g3
(lp293
F-430.75915854582
aF-361.29354314897284
aF-301.9487495338303
aF-267.54808848272864
aF-262.4055803362944
aF-138.08708384783802
aF-49.28029171756475
aF194.53090833725082
aF329.53787609109145
aF842.2031226595641
asg5
F1.0
sg6
F0.26036107751920806
sg7
I89
sg8
F0.9674846472389649
sg9
F3.577806588025952
sg10
F0.19921298424869796
sg11
F0.31518729763167486
saF-1094.0014512286232
aa(lp294
(dp295
g3
(lp296
F-231.1782500337281
aF-198.821623899653
aF-138.46604217166782
aF-87.13756380877669
aF33.330608411231424
aF68.72521441938943
aF142.231908862497
aF174.31208483493197
aF184.6397874516067
aF316.85700516163547
asg5
F0.8053300590494157
sg6
F0.256652307368035
sg7
I35
sg8
F0.6775780093927131
sg9
F1.6490711517287895
sg10
F0.17348777062500448
sg11
F0.31242704880043753
saF-568.4659161050489
aa(lp297
(dp298
g3
(lp299
F-226.86086706559183
aF-197.6805410975105
aF-144.19902081072098
aF-112.00997148175611
aF-16.277281190974236
aF71.0454374547719
aF97.53381371325554
aF148.79364518304783
aF150.01135129193563
aF154.810109314393
asg5
F0.9555217248280394
sg6
F0.3123450193047809
sg7
I35
sg8
F0.781472993813807
sg9
F1.6183508240557645
sg10
F0.19921298424869796
sg11
F0.30006383701479866
saF-568.7404289738233
aa(lp300
(dp301
g3
(lp302
F-148.86843123894278
aF-139.48483393751735
aF-118.19871452002928
aF-0.5791056854219505
aF10.892338215709742
aF64.04647568352289
aF142.6968661097244
aF151.0527535409276
aF360.90531026789586
aF829.4854454663639
asg5
F0.9824842808116185
sg6
F0.28790792301674895
sg7
I89
sg8
F0.9170929661575311
sg9
F1.6325743297994963
sg10
F0.19921298424869796
sg11
F0.3038835770370404
saF-406.5519796964894
aa(lp303
(dp304
g3
(lp305
F-177.22087055228587
aF-150.97947924528876
aF-93.70257574957986
aF-12.804874619338193
aF30.30335087989829
aF30.368781169887143
aF54.72180100393621
aF117.72662315254615
aF490.5095641699436
aF1029.8888123204583
asg5
F0.9777608624140197
sg6
F0.2711244048610197
sg7
I87
sg8
F0.9674846472389649
sg9
F1.6321583430571378
sg10
F0.19921298424869796
sg11
F0.30006383701479866
saF-421.9029255471545
aa(lp306
(dp307
g3
(lp308
F-147.43326046595394
aF-133.65126648927992
aF-124.76286011414584
aF-123.31545104313864
aF-109.32666332568931
aF-29.911258505707337
aF178.74257759261582
aF264.5498785768598
aF384.2247272483921
aF914.4666227375742
asg5
F1.0
sg6
F0.32645006592027226
sg7
I87
sg8
F0.9461353214512565
sg9
F1.636760849390929
sg10
F0.19921298424869796
sg11
F0.30540738508276555
saF-405.8473870693797
aa.