(lp0
(lp1
(dp2
S'winnings'
p3
(lp4
F-85.88005476638341
aF-34.15171506492254
aF-32.512512167915816
aF-30.259437993191
aF6.701867453002933
aF30.962329149954712
aF45.82557775636474
aF79.90388473773783
aF214.92125253285826
aF523.6898471793697
asS'end_weight'
p5
F0.7365403453211316
sS'close_match_threshold'
p6
F0.3258404679654306
sS'history_in_matches'
p7
I103
sS'start_weight'
p8
F0.019350159494721637
sS'over_power_threshold'
p9
F1.5646865182297562
sS'over_power_extra'
p10
F0.17272833432626392
sS'close_match_trim'
p11
F0.3455400694478179
saF-152.54428199922177
aa(lp12
(dp13
g3
(lp14
F-85.88005476638341
aF-34.15171506492254
aF-32.512512167915816
aF-30.259437993191
aF6.701867453002933
aF15.066001940000888
aF30.962329149954712
aF79.90388473773783
aF214.92125253285826
aF523.6898471793697
asg5
F0.7364242192426298
sg6
F0.3258404679654306
sg7
I97
sg8
F0.01934988266964294
sg9
F1.5646865182297562
sg10
F0.17272833432626392
sg11
F0.3455053792836861
saF-152.54428199922177
aa(lp15
(dp16
g3
(lp17
F-85.88005476638341
aF-34.15171506492254
aF-32.512512167915816
aF-30.259437993191
aF6.701867453002933
aF30.962329149954712
aF45.82557775636474
aF79.90388473773783
aF214.92125253285826
aF523.6898471793697
asg5
F0.7369635143090061
sg6
F0.3258404679654306
sg7
I96
sg8
F0.01934988266964294
sg9
F1.5646865182297562
sg10
F0.17272833432626392
sg11
F0.3455770945268432
saF-152.54428199922177
aa(lp18
(dp19
g3
(lp20
F-85.88005476638341
aF-34.15171506492254
aF-32.512512167915816
aF-30.259437993191
aF6.701867453002933
aF30.962329149954712
aF33.09821070185831
aF45.82557775636474
aF214.92125253285826
aF523.6898471793697
asg5
F0.7358358278151125
sg6
F0.32456284869478536
sg7
I99
sg8
F0.01936587519294449
sg9
F1.5646865182297562
sg10
F0.17272833432626392
sg11
F0.3455979732524309
saF-152.54428199922177
aa(lp21
(dp22
g3
(lp23
F-85.88005476638341
aF-34.15171506492254
aF-32.512512167915816
aF-30.259437993191
aF6.701867453002933
aF30.962329149954712
aF45.82557775636474
aF79.90388473773783
aF214.92125253285826
aF523.6898471793697
asg5
F0.7364242192426298
sg6
F0.3255210631477693
sg7
I98
sg8
F0.019357162346676518
sg9
F1.5646865182297562
sg10
F0.17272833432626392
sg11
F0.3455270606362685
saF-152.54428199922177
aa(lp24
(dp25
g3
(lp26
F-85.88005476638341
aF-34.15171506492254
aF-32.512512167915816
aF-30.259437993191
aF6.701867453002933
aF15.066001940000888
aF30.962329149954712
aF79.90388473773783
aF214.92125253285826
aF523.6898471793697
asg5
F0.7351229007039937
sg6
F0.3258404679654306
sg7
I97
sg8
F0.01934988266964294
sg9
F1.5646865182297562
sg10
F0.17272833432626392
sg11
F0.3455400694478179
saF-152.54428199922177
aa(lp27
(dp28
g3
(lp29
F-85.88005476638341
aF-34.15171506492254
aF-32.512512167915816
aF-30.259437993191
aF6.701867453002933
aF30.962329149954712
aF45.82557775636474
aF79.90388473773783
aF214.92125253285826
aF523.6898471793697
asg5
F0.7358101334238842
sg6
F0.3255210631477693
sg7
I98
sg8
F0.01935388791489718
sg9
F1.5646865182297562
sg10
F0.17272833432626392
sg11
F0.3455335650420432
saF-152.54428199922177
aa(lp30
(dp31
g3
(lp32
F-85.88005476638341
aF-34.15171506492254
aF-32.512512167915816
aF-30.259437993191
aF6.701867453002933
aF15.066001940000888
aF30.962329149954712
aF79.90388473773783
aF214.92125253285826
aF523.6898471793697
asg5
F0.7358358278151125
sg6
F0.3258404679654306
sg7
I114
sg8
F0.019357878931293718
sg9
F1.5646865182297562
sg10
F0.17272833432626392
sg11
F0.3456141196058685
saF-152.54428199922177
aa(lp33
(dp34
g3
(lp35
F-85.88005476638341
aF-34.15171506492254
aF-32.512512167915816
aF-30.259437993191
aF6.701867453002933
aF15.066001940000888
aF30.962329149954712
aF79.90388473773783
aF214.92125253285826
aF523.6898471793697
asg5
F0.7361060321229426
sg6
F0.3258404679654306
sg7
I117
sg8
F0.019358775128194002
sg9
F1.5646865182297562
sg10
F0.17272833432626392
sg11
F0.3456141196058685
saF-152.54428199922177
aa(lp36
(dp37
g3
(lp38
F-85.88005476638341
aF-34.15171506492254
aF-32.512512167915816
aF-30.259437993191
aF6.701867453002933
aF30.962329149954712
aF45.82557775636474
aF79.90388473773783
aF214.92125253285826
aF523.6898471793697
asg5
F0.7359083837399059
sg6
F0.32568076555659997
sg7
I98
sg8
F0.01935188529227006
sg9
F1.5646865182297562
sg10
F0.17272833432626392
sg11
F0.3456331324842869
saF-152.54428199922177
aa(lp39
(dp40
g3
(lp41
F-85.88005476638341
aF-34.15171506492254
aF-32.512512167915816
aF-30.259437993191
aF6.701867453002933
aF22.662875240224025
aF30.962329149954712
aF45.82557775636474
aF214.92125253285826
aF523.6898471793697
asg5
F0.7351229007039937
sg6
F0.32456284869478536
sg7
I107
sg8
F0.01935388791489718
sg9
F1.5646865182297562
sg10
F0.17272833432626392
sg11
F0.34547068911955425
saF-152.54428199922177
aa(lp42
(dp43
g3
(lp44
F-85.88005476638341
aF-34.15171506492254
aF-32.512512167915816
aF-30.259437993191
aF6.701867453002933
aF15.066001940000888
aF30.962329149954712
aF79.90388473773783
aF214.92125253285826
aF523.6898471793697
asg5
F0.7364648807374606
sg6
F0.3258404679654306
sg7
I99
sg8
F0.01934988266964294
sg9
F1.5646865182297562
sg10
F0.17272833432626392
sg11
F0.3456141196058685
saF-152.54428199922177
aa(lp45
(dp46
g3
(lp47
F-85.88005476638341
aF-34.15171506492254
aF-32.512512167915816
aF-30.259437993191
aF6.701867453002933
aF30.962329149954712
aF33.09821070185831
aF45.82557775636474
aF214.92125253285826
aF523.6898471793697
asg5
F0.735735342671515
sg6
F0.32520165833010795
sg7
I97
sg8
F0.019361697915964805
sg9
F1.5646865182297562
sg10
F0.17272833432626392
sg11
F0.3455400694478179
saF-152.54428199922177
aa(lp48
(dp49
g3
(lp50
F-85.88005476638341
aF-34.15171506492254
aF-32.512512167915816
aF-30.259437993191
aF6.701867453002933
aF30.962329149954712
aF33.09821070185831
aF45.82557775636474
aF214.92125253285826
aF523.6898471793697
asg5
F0.7358358278151125
sg6
F0.32520165833010795
sg7
I98
sg8
F0.019360555859231143
sg9
F1.5646865182297562
sg10
F0.17272833432626392
sg11
F0.3455575813095191
saF-152.54428199922177
aa(lp51
(dp52
g3
(lp53
F-85.88005476638341
aF-34.15171506492254
aF-32.512512167915816
aF-30.259437993191
aF6.701867453002933
aF30.962329149954712
aF45.82557775636474
aF79.90388473773783
aF214.92125253285826
aF523.6898471793697
asg5
F0.7369635143090061
sg6
F0.3258404679654306
sg7
I99
sg8
F0.01934988266964294
sg9
F1.5646865182297562
sg10
F0.17272833432626392
sg11
F0.3455400694478179
saF-152.54428199922177
aa(lp54
(dp55
g3
(lp56
F-85.88005476638341
aF-34.15171506492254
aF-32.512512167915816
aF-30.259437993191
aF6.701867453002933
aF30.962329149954712
aF45.82557775636474
aF79.90388473773783
aF214.92125253285826
aF523.6898471793697
asg5
F0.7365403453211316
sg6
F0.3258404679654306
sg7
I99
sg8
F0.01935002108218229
sg9
F1.5646865182297562
sg10
F0.17272833432626392
sg11
F0.3455400694478179
saF-152.54428199922177
aa(lp57
(dp58
g3
(lp59
F-85.88005476638341
aF-34.15171506492254
aF-32.512512167915816
aF-30.259437993191
aF6.701867453002933
aF15.066001940000888
aF30.962329149954712
aF79.90388473773783
aF214.92125253285826
aF523.6898471793697
asg5
F0.7365964383854084
sg6
F0.3258404679654306
sg7
I114
sg8
F0.01935521926443704
sg9
F1.5646865182297562
sg10
F0.17272833432626392
sg11
F0.3455607501225888
saF-152.54428199922177
aa(lp60
(dp61
g3
(lp62
F-85.88005476638341
aF-34.15171506492254
aF-32.512512167915816
aF-30.259437993191
aF6.701867453002933
aF30.962329149954712
aF45.82557775636474
aF79.90388473773783
aF214.92125253285826
aF523.6898471793697
asg5
F0.7366732585451952
sg6
F0.3258404679654306
sg7
I97
sg8
F0.01934988266964294
sg9
F1.5646865182297562
sg10
F0.17272833432626392
sg11
F0.3456141196058685
saF-152.54428199922177
aa(lp63
(dp64
g3
(lp65
F-85.88005476638341
aF-34.15171506492254
aF-32.512512167915816
aF-30.259437993191
aF6.701867453002933
aF30.962329149954712
aF33.09821070185831
aF45.82557775636474
aF214.92125253285826
aF523.6898471793697
asg5
F0.7363494284902605
sg6
F0.32456284869478536
sg7
I115
sg8
F0.019352060881209936
sg9
F1.5646865182297562
sg10
F0.17272833432626392
sg11
F0.3455400694478179
saF-152.54428199922177
aa(lp66
(dp67
g3
(lp68
F-85.88005476638341
aF-34.15171506492254
aF-32.512512167915816
aF-30.259437993191
aF6.701867453002933
aF15.066001940000888
aF30.962329149954712
aF79.90388473773783
aF214.92125253285826
aF523.6898471793697
asg5
F0.7364648807374606
sg6
F0.3258404679654306
sg7
I99
sg8
F0.019352208274333614
sg9
F1.5646865182297562
sg10
F0.17272833432626392
sg11
F0.3455400694478179
saF-152.54428199922177
aa(lp69
(dp70
g3
(lp71
F-85.88005476638341
aF-34.15171506492254
aF-32.512512167915816
aF-30.259437993191
aF6.701867453002933
aF30.962329149954712
aF45.82557775636474
aF79.90388473773783
aF214.92125253285826
aF523.6898471793697
asg5
F0.7366732585451952
sg6
F0.3258404679654306
sg7
I100
sg8
F0.019352836481223407
sg9
F1.5646865182297562
sg10
F0.17272833432626392
sg11
F0.3456141196058685
saF-152.54428199922177
aa(lp72
(dp73
g3
(lp74
F-85.88005476638341
aF-34.15171506492254
aF-32.512512167915816
aF-30.259437993191
aF6.701867453002933
aF30.962329149954712
aF33.09821070185831
aF45.82557775636474
aF214.92125253285826
aF523.6898471793697
asg5
F0.7366774157741136
sg6
F0.32456284869478536
sg7
I106
sg8
F0.01936587519294449
sg9
F1.5646865182297562
sg10
F0.17272833432626392
sg11
F0.3455686721552631
saF-152.54428199922177
aa(lp75
(dp76
g3
(lp77
F-85.88005476638341
aF-34.15171506492254
aF-32.512512167915816
aF-30.259437993191
aF6.701867453002933
aF30.962329149954712
aF33.09821070185831
aF45.82557775636474
aF214.92125253285826
aF523.6898471793697
asg5
F0.7363494284902605
sg6
F0.32520165833010795
sg7
I99
sg8
F0.019364442023710092
sg9
F1.5646865182297562
sg10
F0.17272833432626392
sg11
F0.3455400694478179
saF-152.54428199922177
aa(lp78
(dp79
g3
(lp80
F-85.88005476638341
aF-34.15171506492254
aF-32.512512167915816
aF-30.259437993191
aF6.701867453002933
aF22.662875240224025
aF30.962329149954712
aF45.82557775636474
aF214.92125253285826
aF523.6898471793697
asg5
F0.7363494284902605
sg6
F0.32456284869478536
sg7
I107
sg8
F0.019364442023710092
sg9
F1.5646865182297562
sg10
F0.17272833432626392
sg11
F0.34547068911955425
saF-152.54428199922177
aa(lp81
(dp82
g3
(lp83
F-85.88005476638341
aF-34.15171506492254
aF-32.512512167915816
aF-30.259437993191
aF6.701867453002933
aF15.066001940000888
aF30.962329149954712
aF79.90388473773783
aF214.92125253285826
aF523.6898471793697
asg5
F0.7366564713996333
sg6
F0.3258404679654306
sg7
I99
sg8
F0.019353381034115158
sg9
F1.5646865182297562
sg10
F0.17272833432626392
sg11
F0.3455770945268432
saF-152.54428199922177
aa(lp84
(dp85
g3
(lp86
F-85.88005476638341
aF-34.15171506492254
aF-32.512512167915816
aF-30.259437993191
aF6.701867453002933
aF30.962329149954712
aF45.82557775636474
aF79.90388473773783
aF214.92125253285826
aF523.6898471793697
asg5
F0.735735342671515
sg6
F0.3255210631477693
sg7
I97
sg8
F0.019352060881209936
sg9
F1.5646865182297562
sg10
F0.17272833432626392
sg11
F0.3455400694478179
saF-152.54428199922177
aa(lp87
(dp88
g3
(lp89
F-85.88005476638341
aF-34.15171506492254
aF-32.512512167915816
aF-30.259437993191
aF6.701867453002933
aF30.962329149954712
aF33.09821070185831
aF45.82557775636474
aF214.92125253285826
aF523.6898471793697
asg5
F0.735735342671515
sg6
F0.32456284869478536
sg7
I98
sg8
F0.01935978842362926
sg9
F1.5646865182297562
sg10
F0.17272833432626392
sg11
F0.3455686721552631
saF-152.54428199922177
aa(lp90
(dp91
g3
(lp92
F-85.88005476638341
aF-34.15171506492254
aF-32.512512167915816
aF-30.259437993191
aF6.701867453002933
aF30.962329149954712
aF45.82557775636474
aF79.90388473773783
aF214.92125253285826
aF523.6898471793697
asg5
F0.7366564713996333
sg6
F0.3258404679654306
sg7
I146
sg8
F0.019353100068564565
sg9
F1.5646865182297562
sg10
F0.17272833432626392
sg11
F0.3455520775815558
saF-152.54428199922177
aa(lp93
(dp94
g3
(lp95
F-85.88005476638341
aF-34.15171506492254
aF-32.512512167915816
aF-30.259437993191
aF6.701867453002933
aF30.962329149954712
aF45.82557775636474
aF79.90388473773783
aF214.92125253285826
aF523.6898471793697
asg5
F0.7366451525806132
sg6
F0.3258404679654306
sg7
I98
sg8
F0.01934988266964294
sg9
F1.5646865182297562
sg10
F0.17272833432626392
sg11
F0.3455969413034379
saF-152.54428199922177
aa(lp96
(dp97
g3
(lp98
F-85.88005476638341
aF-34.15171506492254
aF-32.512512167915816
aF-30.259437993191
aF6.701867453002933
aF30.962329149954712
aF45.82557775636474
aF79.90388473773783
aF214.92125253285826
aF523.6898471793697
asg5
F0.7366564713996333
sg6
F0.3258404679654306
sg7
I115
sg8
F0.019350436319800338
sg9
F1.5646865182297562
sg10
F0.17272833432626392
sg11
F0.3455400694478179
saF-152.54428199922177
aa(lp99
(dp100
g3
(lp101
F-85.88005476638341
aF-34.15171506492254
aF-32.512512167915816
aF-30.259437993191
aF6.701867453002933
aF15.066001940000888
aF30.962329149954712
aF79.90388473773783
aF214.92125253285826
aF523.6898471793697
asg5
F0.7360686367467579
sg6
F0.3258404679654306
sg7
I109
sg8
F0.01934988721827576
sg9
F1.5646865182297562
sg10
F0.17272833432626392
sg11
F0.34555691419097806
saF-152.54428199922177
aa(lp102
(dp103
g3
(lp104
F-85.88005476638341
aF-34.15171506492254
aF-32.512512167915816
aF-30.259437993191
aF6.701867453002933
aF30.962329149954712
aF33.09821070185831
aF45.82557775636474
aF214.92125253285826
aF523.6898471793697
asg5
F0.7358314121508585
sg6
F0.32456284869478536
sg7
I99
sg8
F0.01935521926443704
sg9
F1.5646865182297562
sg10
F0.17272833432626392
sg11
F0.34559024927057347
saF-152.54428199922177
aa(lp105
(dp106
g3
(lp107
F-85.88005476638341
aF-34.15171506492254
aF-32.512512167915816
aF-30.259437993191
aF6.701867453002933
aF30.962329149954712
aF45.82557775636474
aF79.90388473773783
aF214.92125253285826
aF523.6898471793697
asg5
F0.7369635143090061
sg6
F0.3255210631477693
sg7
I97
sg8
F0.019357162346676518
sg9
F1.5646865182297562
sg10
F0.17272833432626392
sg11
F0.3455335650420432
saF-152.54428199922177
aa(lp108
(dp109
g3
(lp110
F-85.88005476638341
aF-34.15171506492254
aF-32.512512167915816
aF-30.259437993191
aF6.701867453002933
aF30.962329149954712
aF33.09821070185831
aF45.82557775636474
aF214.92125253285826
aF523.6898471793697
asg5
F0.7369635143090061
sg6
F0.32456284869478536
sg7
I98
sg8
F0.01934988266964294
sg9
F1.5646865182297562
sg10
F0.17272833432626392
sg11
F0.3455400694478179
saF-152.54428199922177
aa(lp111
(dp112
g3
(lp113
F-85.88005476638341
aF-34.15171506492254
aF-32.512512167915816
aF-30.259437993191
aF6.701867453002933
aF30.962329149954712
aF45.82557775636474
aF79.90388473773783
aF214.92125253285826
aF523.6898471793697
asg5
F0.7369635143090061
sg6
F0.3258404679654306
sg7
I99
sg8
F0.01934988266964294
sg9
F1.5646865182297562
sg10
F0.17272833432626392
sg11
F0.3456141196058685
saF-152.54428199922177
aa(lp114
(dp115
g3
(lp116
F-85.88005476638341
aF-34.15171506492254
aF-32.512512167915816
aF-30.259437993191
aF6.701867453002933
aF30.962329149954712
aF45.82557775636474
aF79.90388473773783
aF214.92125253285826
aF523.6898471793697
asg5
F0.7366732585451952
sg6
F0.3258404679654306
sg7
I96
sg8
F0.01934988266964294
sg9
F1.5646865182297562
sg10
F0.17272833432626392
sg11
F0.3456881697639191
saF-152.54428199922177
aa(lp117
(dp118
g3
(lp119
F-85.88005476638341
aF-34.15171506492254
aF-32.512512167915816
aF-30.259437993191
aF6.701867453002933
aF30.962329149954712
aF45.82557775636474
aF79.90388473773783
aF214.92125253285826
aF523.6898471793697
asg5
F0.7366938667758179
sg6
F0.3255210631477693
sg7
I98
sg8
F0.01934988266964294
sg9
F1.5646865182297562
sg10
F0.17272833432626392
sg11
F0.3456331324842869
saF-152.54428199922177
aa(lp120
(dp121
g3
(lp122
F-85.88005476638341
aF-34.15171506492254
aF-32.512512167915816
aF-30.259437993191
aF6.701867453002933
aF15.066001940000888
aF30.962329149954712
aF79.90388473773783
aF214.92125253285826
aF523.6898471793697
asg5
F0.7364019308220009
sg6
F0.3258404679654306
sg7
I122
sg8
F0.01934988721827576
sg9
F1.5646865182297562
sg10
F0.17272833432626392
sg11
F0.3456141196058685
saF-152.54428199922177
aa(lp123
(dp124
g3
(lp125
F-85.88005476638341
aF-34.15171506492254
aF-32.512512167915816
aF-30.259437993191
aF6.701867453002933
aF30.962329149954712
aF45.82557775636474
aF79.90388473773783
aF214.92125253285826
aF523.6898471793697
asg5
F0.7366732585451952
sg6
F0.3258404679654306
sg7
I99
sg8
F0.01935249498386677
sg9
F1.5646865182297562
sg10
F0.17272833432626392
sg11
F0.3455400694478179
saF-152.54428199922177
aa(lp126
(dp127
g3
(lp128
F-85.88005476638341
aF-34.15171506492254
aF-32.512512167915816
aF-30.259437993191
aF6.701867453002933
aF15.066001940000888
aF30.962329149954712
aF79.90388473773783
aF214.92125253285826
aF523.6898471793697
asg5
F0.7363494284902605
sg6
F0.3258404679654306
sg7
I131
sg8
F0.019352060881209936
sg9
F1.5646865182297562
sg10
F0.17272833432626392
sg11
F0.3455400694478179
saF-152.54428199922177
aa(lp129
(dp130
g3
(lp131
F-85.88005476638341
aF-34.15171506492254
aF-32.512512167915816
aF-30.259437993191
aF6.701867453002933
aF15.066001940000888
aF30.962329149954712
aF79.90388473773783
aF214.92125253285826
aF523.6898471793697
asg5
F0.735735342671515
sg6
F0.3258404679654306
sg7
I98
sg8
F0.01935978842362926
sg9
F1.5646865182297562
sg10
F0.17272833432626392
sg11
F0.3455400694478179
saF-152.54428199922177
aa(lp132
(dp133
g3
(lp134
F-85.88005476638341
aF-34.15171506492254
aF-32.512512167915816
aF-30.259437993191
aF6.701867453002933
aF15.066001940000888
aF30.962329149954712
aF79.90388473773783
aF214.92125253285826
aF523.6898471793697
asg5
F0.7358101334238842
sg6
F0.3258404679654306
sg7
I97
sg8
F0.019362330991950963
sg9
F1.5646865182297562
sg10
F0.17272833432626392
sg11
F0.3455487419888509
saF-152.54428199922177
aa(lp135
(dp136
g3
(lp137
F-85.88005476638341
aF-34.15171506492254
aF-32.512512167915816
aF-30.259437993191
aF6.701867453002933
aF15.066001940000888
aF30.962329149954712
aF79.90388473773783
aF214.92125253285826
aF523.6898471793697
asg5
F0.7358358278151125
sg6
F0.3258404679654306
sg7
I99
sg8
F0.019360555859231143
sg9
F1.5646865182297562
sg10
F0.17272833432626392
sg11
F0.3455881019827696
saF-152.54428199922177
aa(lp138
(dp139
g3
(lp140
F-85.88005476638341
aF-34.15171506492254
aF-32.512512167915816
aF-30.259437993191
aF6.701867453002933
aF30.962329149954712
aF33.09821070185831
aF45.82557775636474
aF214.92125253285826
aF523.6898471793697
asg5
F0.7366983601485939
sg6
F0.32456284869478536
sg7
I105
sg8
F0.01936587519294449
sg9
F1.5646865182297562
sg10
F0.17272833432626392
sg11
F0.3455972748627083
saF-152.54428199922177
aa(lp141
(dp142
g3
(lp143
F-85.88005476638341
aF-34.15171506492254
aF-32.512512167915816
aF-30.259437993191
aF6.701867453002933
aF30.962329149954712
aF45.82557775636474
aF79.90388473773783
aF214.92125253285826
aF523.6898471793697
asg5
F0.7369635143090061
sg6
F0.3258404679654306
sg7
I97
sg8
F0.01934988266964294
sg9
F1.5646865182297562
sg10
F0.17272833432626392
sg11
F0.3455400694478179
saF-152.54428199922177
aa(lp144
(dp145
g3
(lp146
F-85.88005476638341
aF-34.15171506492254
aF-32.512512167915816
aF-30.259437993191
aF6.701867453002933
aF15.066001940000888
aF30.962329149954712
aF79.90388473773783
aF214.92125253285826
aF523.6898471793697
asg5
F0.7364242192426298
sg6
F0.3258404679654306
sg7
I96
sg8
F0.01934988266964294
sg9
F1.5646865182297562
sg10
F0.17272833432626392
sg11
F0.3455972748627083
saF-152.54428199922177
aa(lp147
(dp148
g3
(lp149
F-85.88005476638341
aF-34.15171506492254
aF-32.512512167915816
aF-30.259437993191
aF6.701867453002933
aF30.962329149954712
aF33.09821070185831
aF45.82557775636474
aF214.92125253285826
aF523.6898471793697
asg5
F0.7374740835150901
sg6
F0.32456284869478536
sg7
I100
sg8
F0.01934988266964294
sg9
F1.5646865182297562
sg10
F0.17272833432626392
sg11
F0.3456881697639191
saF-152.54428199922177
aa(lp150
(dp151
g3
(lp152
F-85.88005476638341
aF-34.15171506492254
aF-32.512512167915816
aF-30.259437993191
aF6.701867453002933
aF15.066001940000888
aF30.962329149954712
aF79.90388473773783
aF214.92125253285826
aF523.6898471793697
asg5
F0.7363494284902605
sg6
F0.3258404679654306
sg7
I99
sg8
F0.019364442023710092
sg9
F1.5646865182297562
sg10
F0.17272833432626392
sg11
F0.3455053792836861
saF-152.54428199922177
aa(lp153
(dp154
g3
(lp155
F-85.88005476638341
aF-34.15171506492254
aF-32.512512167915816
aF-30.259437993191
aF6.701867453002933
aF15.066001940000888
aF30.962329149954712
aF79.90388473773783
aF214.92125253285826
aF523.6898471793697
asg5
F0.735735342671515
sg6
F0.3258404679654306
sg7
I98
sg8
F0.019361697915964805
sg9
F1.5646865182297562
sg10
F0.17272833432626392
sg11
F0.3455400694478179
saF-152.54428199922177
aa(lp156
(dp157
g3
(lp158
F-85.88005476638341
aF-34.15171506492254
aF-32.512512167915816
aF-30.259437993191
aF6.701867453002933
aF15.066001940000888
aF30.962329149954712
aF79.90388473773783
aF214.92125253285826
aF523.6898471793697
asg5
F0.7364242192426298
sg6
F0.3258404679654306
sg7
I96
sg8
F0.01934988266964294
sg9
F1.5646865182297562
sg10
F0.17272833432626392
sg11
F0.3455400694478179
saF-152.54428199922177
aa(lp159
(dp160
g3
(lp161
F-85.88005476638341
aF-34.15171506492254
aF-32.512512167915816
aF-30.259437993191
aF6.701867453002933
aF30.962329149954712
aF33.09821070185831
aF45.82557775636474
aF214.92125253285826
aF523.6898471793697
asg5
F0.7358314121508585
sg6
F0.32456284869478536
sg7
I99
sg8
F0.019361697915964805
sg9
F1.5646865182297562
sg10
F0.17272833432626392
sg11
F0.34559024927057347
saF-152.54428199922177
aa(lp162
(dp163
g3
(lp164
F-85.88005476638341
aF-34.15171506492254
aF-32.512512167915816
aF-30.259437993191
aF6.701867453002933
aF30.962329149954712
aF45.82557775636474
aF79.90388473773783
aF214.92125253285826
aF523.6898471793697
asg5
F0.7366732585451952
sg6
F0.3258404679654306
sg7
I131
sg8
F0.019352060881209936
sg9
F1.5646865182297562
sg10
F0.17272833432626392
sg11
F0.3455770945268432
saF-152.54428199922177
aa(lp165
(dp166
g3
(lp167
F-85.88005476638341
aF-34.15171506492254
aF-32.512512167915816
aF-30.259437993191
aF6.701867453002933
aF15.066001940000888
aF30.962329149954712
aF79.90388473773783
aF214.92125253285826
aF523.6898471793697
asg5
F0.7358358278151125
sg6
F0.3258404679654306
sg7
I99
sg8
F0.019350159494721637
sg9
F1.5646865182297562
sg10
F0.17272833432626392
sg11
F0.3455400694478179
saF-152.54428199922177
aa(lp168
(dp169
g3
(lp170
F-85.88005476638341
aF-34.15171506492254
aF-32.512512167915816
aF-30.259437993191
aF6.701867453002933
aF30.962329149954712
aF33.09821070185831
aF45.82557775636474
aF214.92125253285826
aF523.6898471793697
asg5
F0.7354291216877543
sg6
F0.32520165833010795
sg7
I98
sg8
F0.019357792915430994
sg9
F1.5646865182297562
sg10
F0.17272833432626392
sg11
F0.3455400694478179
saF-152.54428199922177
aa(lp171
(dp172
g3
(lp173
F-214.17894085517412
aF-112.6166761078922
aF-72.01285646767508
aF-23.643080235676848
aF73.07736768708173
aF80.61743108038468
aF95.03756693422952
aF134.54208786182448
aF175.6124292285424
aF263.26396013365957
asg5
F0.7364242192426298
sg6
F0.39214325925429083
sg7
I96
sg8
F0.01934988266964294
sg9
F1.5646865182297562
sg10
F0.17272833432626392
sg11
F0.3455972748627083
saF-398.8084734307414
aa(lp174
(dp175
g3
(lp176
F-85.88005476638341
aF-34.15171506492254
aF-32.512512167915816
aF-30.259437993191
aF6.701867453002933
aF15.066001940000888
aF30.962329149954712
aF79.90388473773783
aF214.92125253285826
aF523.6898471793697
asg5
F0.7365403453211316
sg6
F0.3258404679654306
sg7
I99
sg8
F0.019351114678257952
sg9
F1.5646865182297562
sg10
F0.17272833432626392
sg11
F0.3455400694478179
saF-152.54428199922177
aa(lp177
(dp178
g3
(lp179
F-85.88005476638341
aF-34.15171506492254
aF-32.512512167915816
aF-30.259437993191
aF6.701867453002933
aF15.066001940000888
aF30.962329149954712
aF79.90388473773783
aF214.92125253285826
aF523.6898471793697
asg5
F0.7364019308220009
sg6
F0.3258404679654306
sg7
I110
sg8
F0.019357164620992927
sg9
F1.5646865182297562
sg10
F0.17272833432626392
sg11
F0.3455053792836861
saF-152.54428199922177
aa(lp180
(dp181
g3
(lp182
F-85.88005476638341
aF-34.15171506492254
aF-32.512512167915816
aF-30.259437993191
aF6.701867453002933
aF15.066001940000888
aF30.962329149954712
aF79.90388473773783
aF214.92125253285826
aF523.6898471793697
asg5
F0.7366564713996333
sg6
F0.3258404679654306
sg7
I115
sg8
F0.0193551123717148
sg9
F1.5646865182297562
sg10
F0.17272833432626392
sg11
F0.3455400694478179
saF-152.54428199922177
aa(lp183
(dp184
g3
(lp185
F-85.88005476638341
aF-34.15171506492254
aF-32.512512167915816
aF-30.259437993191
aF6.701867453002933
aF30.962329149954712
aF45.82557775636474
aF79.90388473773783
aF214.92125253285826
aF523.6898471793697
asg5
F0.7369635143090061
sg6
F0.3258404679654306
sg7
I97
sg8
F0.01934988266964294
sg9
F1.5646865182297562
sg10
F0.17272833432626392
sg11
F0.3456511446848938
saF-152.54428199922177
aa(lp186
(dp187
g3
(lp188
F-279.70984892962474
aF-242.33071158609619
aF-95.68742452646654
aF-89.51959268466362
aF-68.11097379157957
aF54.43742696576783
aF170.08501912438282
aF180.08277212032726
aF456.21257178466476
aF697.4295096536528
asg5
F0.7359083837399059
sg6
F0.32568076555659997
sg7
I119
sg8
F0.01935188529227006
sg9
F1.5646865182297562
sg10
F0.17272833432626392
sg11
F0.1863975168620145
saF-617.7279850421875
aa(lp189
(dp190
g3
(lp191
F-85.88005476638341
aF-34.15171506492254
aF-32.512512167915816
aF-30.259437993191
aF6.701867453002933
aF30.962329149954712
aF33.09821070185831
aF45.82557775636474
aF214.92125253285826
aF523.6898471793697
asg5
F0.7365134221321871
sg6
F0.32456284869478536
sg7
I107
sg8
F0.01936515860832729
sg9
F1.5646865182297562
sg10
F0.17272833432626392
sg11
F0.3455686721552631
saF-152.54428199922177
aa(lp192
(dp193
g3
(lp194
F-85.88005476638341
aF-34.15171506492254
aF-32.512512167915816
aF-30.259437993191
aF6.701867453002933
aF30.962329149954712
aF45.82557775636474
aF79.90388473773783
aF214.92125253285826
aF523.6898471793697
asg5
F0.7364242192426298
sg6
F0.32568076555659997
sg7
I97
sg8
F0.01934988266964294
sg9
F1.5646865182297562
sg10
F0.17272833432626392
sg11
F0.3455705901210685
saF-152.54428199922177
aa(lp195
(dp196
g3
(lp197
F-343.4594688081618
aF-325.11105715205724
aF-226.479063906105
aF-223.10039737397858
aF-6.6460778780336796
aF48.46502750450759
aF169.55653796869933
aF205.6123139943477
aF351.3738084068548
aF710.7489001724832
asg5
F0.7369635143090061
sg6
F0.3258404679654306
sg7
I101
sg8
F0.01934988266964294
sg9
F1.5646865182297562
sg10
F0.17272833432626392
sg11
F0.09907785696906922
saF-895.049589866324
aa(lp198
(dp199
g3
(lp200
F-85.88005476638341
aF-34.15171506492254
aF-32.512512167915816
aF-30.259437993191
aF6.701867453002933
aF15.066001940000888
aF30.962329149954712
aF79.90388473773783
aF214.92125253285826
aF523.6898471793697
asg5
F0.7358101334238842
sg6
F0.3258404679654306
sg7
I97
sg8
F0.019353100068564565
sg9
F1.5646865182297562
sg10
F0.17272833432626392
sg11
F0.3455520775815558
saF-152.54428199922177
aa(lp201
(dp202
g3
(lp203
F-85.88005476638341
aF-34.15171506492254
aF-32.512512167915816
aF-30.259437993191
aF6.701867453002933
aF30.962329149954712
aF45.82557775636474
aF79.90388473773783
aF214.92125253285826
aF523.6898471793697
asg5
F0.7364242192426298
sg6
F0.32568076555659997
sg7
I97
sg8
F0.01934988266964294
sg9
F1.5646865182297562
sg10
F0.17272833432626392
sg11
F0.3455400694478179
saF-152.54428199922177
aa(lp204
(dp205
g3
(lp206
F-477.2927421632145
aF-420.3144227835829
aF-364.74387675109665
aF-275.80928509672924
aF-236.30649620232828
aF18.039816015923634
aF55.154451096619596
aF143.16267782614
aF348.97163580657457
aF674.9084079302315
asg5
F0.7364648807374606
sg6
F0.3258404679654306
sg7
I107
sg8
F0.019350159494721637
sg9
F1.5646865182297562
sg10
F0.07508189396247314
sg11
F0.3455400694478179
saF-1262.351041697894
aa(lp207
(dp208
g3
(lp209
F-85.88005476638341
aF-34.15171506492254
aF-32.512512167915816
aF-30.259437993191
aF6.701867453002933
aF30.962329149954712
aF33.09821070185831
aF45.82557775636474
aF214.92125253285826
aF523.6898471793697
asg5
F0.735735342671515
sg6
F0.32456284869478536
sg7
I96
sg8
F0.01935978842362926
sg9
F1.5646865182297562
sg10
F0.17272833432626392
sg11
F0.3455400694478179
saF-152.54428199922177
aa(lp210
(dp211
g3
(lp212
F-85.88005476638341
aF-34.15171506492254
aF-32.512512167915816
aF-30.259437993191
aF6.701867453002933
aF30.962329149954712
aF45.82557775636474
aF79.90388473773783
aF214.92125253285826
aF523.6898471793697
asg5
F0.7366938667758179
sg6
F0.3258404679654306
sg7
I103
sg8
F0.019350159494721637
sg9
F1.5646865182297562
sg10
F0.17272833432626392
sg11
F0.3456331324842869
saF-152.54428199922177
aa(lp213
(dp214
g3
(lp215
F-85.88005476638341
aF-34.15171506492254
aF-32.512512167915816
aF-30.259437993191
aF6.701867453002933
aF15.066001940000888
aF30.962329149954712
aF79.90388473773783
aF214.92125253285826
aF523.6898471793697
asg5
F0.7365403453211316
sg6
F0.3258404679654306
sg7
I99
sg8
F0.019364442023710092
sg9
F1.5646865182297562
sg10
F0.17272833432626392
sg11
F0.3455400694478179
saF-152.54428199922177
aa(lp216
(dp217
g3
(lp218
F-276.40046642387335
aF-125.56187336708558
aF-107.45367257703572
aF-103.62467299232082
aF26.830160843591557
aF45.020652221171986
aF109.69408929639553
aF161.60794179695517
aF224.57981371466713
aF350.53195877319604
asg5
F0.7362043006083551
sg6
F0.4302456855559823
sg7
I97
sg8
F0.01935249498386677
sg9
F1.5646865182297562
sg10
F0.17272833432626392
sg11
F0.3455400694478179
saF-509.41601236799465
aa(lp219
(dp220
g3
(lp221
F-220.71245443938892
aF-153.83366251619702
aF-151.84522808811118
aF-107.59587973375824
aF-38.12201169550576
aF-20.27247368114149
aF103.09571569284367
aF130.1159939950253
aF225.54887488698
aF1137.5512869807067
asg5
F0.7357361645971271
sg6
F0.32456284869478536
sg7
I111
sg8
F0.01935388791489718
sg9
F1.5646865182297562
sg10
F0.14042811280397052
sg11
F0.3455053792836861
saF-526.3913450436971
aa(lp222
(dp223
g3
(lp224
F-85.88005476638341
aF-34.15171506492254
aF-32.512512167915816
aF-30.259437993191
aF6.701867453002933
aF30.962329149954712
aF45.82557775636474
aF79.90388473773783
aF214.92125253285826
aF523.6898471793697
asg5
F0.7366732585451952
sg6
F0.3258404679654306
sg7
I100
sg8
F0.019352836481223407
sg9
F1.5646865182297562
sg10
F0.17272833432626392
sg11
F0.3455770945268432
saF-152.54428199922177
aa(lp225
(dp226
g3
(lp227
F-85.88005476638341
aF-64.90887317308227
aF-43.55627480138878
aF-42.28511305510767
aF6.701867453002933
aF41.48235291678975
aF45.82557775636474
aF47.863864511943575
aF232.71555370631518
aF575.9588192832498
asg5
F0.9576945330570502
sg6
F0.3258404679654306
sg7
I98
sg8
F0.019360555859231143
sg9
F1.5646865182297562
sg10
F0.17272833432626392
sg11
F0.3455400694478179
saF-194.34520274085446
aa(lp228
(dp229
g3
(lp230
F-85.88005476638341
aF-34.15171506492254
aF-32.512512167915816
aF-30.259437993191
aF6.701867453002933
aF30.962329149954712
aF33.09821070185831
aF45.82557775636474
aF214.92125253285826
aF523.6898471793697
asg5
F0.7363494284902605
sg6
F0.32456284869478536
sg7
I115
sg8
F0.019350436319800338
sg9
F1.5646865182297562
sg10
F0.17272833432626392
sg11
F0.3455400694478179
saF-152.54428199922177
aa(lp231
(dp232
g3
(lp233
F-85.88005476638341
aF-34.15171506492254
aF-32.512512167915816
aF-30.259437993191
aF6.701867453002933
aF30.962329149954712
aF33.09821070185831
aF45.82557775636474
aF214.92125253285826
aF523.6898471793697
asg5
F0.736256621794613
sg6
F0.32520165833010795
sg7
I99
sg8
F0.019363215526087815
sg9
F1.5646865182297562
sg10
F0.17272833432626392
sg11
F0.3455881019827696
saF-152.54428199922177
aa(lp234
(dp235
g3
(lp236
F-398.4801270420121
aF-159.64386790688457
aF-136.36701999036484
aF-94.18982138175738
aF-63.28469316208998
aF-44.6943478298208
aF143.6491189435776
aF155.9880220322691
aF330.9611812789433
aF817.0872951649969
asg5
F1.0
sg6
F0.32520165833010795
sg7
I132
sg8
F0.8274209292580528
sg9
F1.5646865182297562
sg10
F0.17272833432626392
sg11
F0.3455516762680585
saF-694.4910149392615
aa(lp237
(dp238
g3
(lp239
F-85.88005476638341
aF-34.15171506492254
aF-32.512512167915816
aF-30.259437993191
aF6.701867453002933
aF30.962329149954712
aF45.82557775636474
aF79.90388473773783
aF214.92125253285826
aF523.6898471793697
asg5
F0.7362146047236664
sg6
F0.3255210631477693
sg7
I98
sg8
F0.01934988266964294
sg9
F1.5646865182297562
sg10
F0.17272833432626392
sg11
F0.3455400694478179
saF-152.54428199922177
aa(lp240
(dp241
g3
(lp242
F-255.2454885438866
aF-110.95533815452904
aF-72.01285646767508
aF-50.72800443699589
aF78.24841673806986
aF83.64064605438807
aF107.14339874325015
aF123.56688527728625
aF165.20447345908497
aF350.8421900237206
asg5
F0.8244702993972435
sg6
F0.3771590875625322
sg7
I96
sg8
F0.01934988266964294
sg9
F1.5646865182297562
sg10
F0.17272833432626392
sg11
F0.3455972748627083
saF-438.21368316609073
aa(lp243
(dp244
g3
(lp245
F-345.9156122362672
aF-264.99652858971433
aF-161.71770673436413
aF-81.44795167399741
aF-79.34829584303134
aF74.19339930024557
aF91.72196792804493
aF204.0751551464789
aF532.5551515577495
aF586.9073602267797
asg5
F0.7366732585451952
sg6
F0.3258404679654306
sg7
I97
sg8
F0.01934988266964294
sg9
F2.467973546104149
sg10
F0.17272833432626392
sg11
F0.3456511446848938
saF-772.6298475603456
aa(lp246
(dp247
g3
(lp248
F-457.91175398609823
aF-331.7275883271644
aF-265.5783961432644
aF-253.20657657603272
aF-228.54383736137106
aF-166.08058900622984
aF-112.6883225411134
aF0.23082568260110747
aF474.5008941120195
aF720.5094912989366
asg5
F0.7369635143090061
sg6
F0.11006379495760793
sg7
I99
sg8
F0.01934988266964294
sg9
F1.5646865182297562
sg10
F0.197376063255434
sg11
F0.3456141196058685
saF-1055.217738456527
aa(lp249
(dp250
g3
(lp251
F-85.88005476638341
aF-34.15171506492254
aF-32.512512167915816
aF-30.259437993191
aF6.701867453002933
aF30.962329149954712
aF45.82557775636474
aF79.90388473773783
aF214.92125253285826
aF523.6898471793697
asg5
F0.7363494284902605
sg6
F0.3255210631477693
sg7
I107
sg8
F0.019350436319800338
sg9
F1.5646865182297562
sg10
F0.17272833432626392
sg11
F0.3455400694478179
saF-152.54428199922177
aa(lp252
(dp253
g3
(lp254
F-187.94554645506958
aF-58.585467984180696
aF-49.208768264654395
aF-13.05823195040125
aF26.50027480526569
aF88.0522360399707
aF88.85933534530614
aF124.66085436272056
aF132.9458894478273
aF586.2489334102124
asg5
F0.7364648807374606
sg6
F0.3258404679654306
sg7
I99
sg8
F0.01934988266964294
sg9
F1.5646865182297562
sg10
F0.17272833432626392
sg11
F0.3823375419072781
saF-295.73978270390467
aa(lp255
(dp256
g3
(lp257
F-201.3536016051678
aF-125.38828611864255
aF-119.67634725241771
aF-89.29063070289033
aF-89.26736990077904
aF-37.20288632245013
aF-27.332451484372427
aF148.16321464009548
aF199.5018468427004
aF867.5058510107451
asg5
F0.7369635143090061
sg6
F0.32568076555659997
sg7
I97
sg8
F0.019353522508159728
sg9
F1.5646865182297562
sg10
F0.1433177915096248
sg11
F0.3455335650420432
saF-446.41823497622806
aa(lp258
(dp259
g3
(lp260
F-85.88005476638341
aF-34.15171506492254
aF-32.512512167915816
aF-30.259437993191
aF6.701867453002933
aF15.066001940000888
aF30.962329149954712
aF79.90388473773783
aF214.92125253285826
aF523.6898471793697
asg5
F0.7364019308220009
sg6
F0.3258404679654306
sg7
I122
sg8
F0.01935978842362926
sg9
F1.5646865182297562
sg10
F0.17272833432626392
sg11
F0.3455400694478179
saF-152.54428199922177
aa(lp261
(dp262
g3
(lp263
F-82.49771845926614
aF-59.02517994027437
aF-41.95705012122812
aF-32.34294698887811
aF-3.4625488940619107
aF0.9734727761779141
aF22.132394952715686
aF51.97922124266984
aF219.13628544980588
aF528.1198159159478
asg5
F0.7367519298150689
sg6
F0.3258404679654306
sg7
I99
sg8
F0.01935002108218229
sg9
F1.5646865182297562
sg10
F0.176750543594194
sg11
F0.3455770945268432
saF-183.47994852076863
aa(lp264
(dp265
g3
(lp266
F-404.13954201724516
aF-394.1304342292026
aF-311.35020704829253
aF-310.9247384474078
aF-151.96611448975648
aF-51.63644968976564
aF6.757410197546733
aF94.6063518588362
aF530.8478428089732
aF969.2584681474625
asg5
F0.7362667587421092
sg6
F0.3258404679654306
sg7
I104
sg8
F0.019349884943959353
sg9
F3.4019841014555716
sg10
F0.17272833432626392
sg11
F0.3456141196058685
saF-1109.6201832947404
aa(lp267
(dp268
g3
(lp269
F-352.3758688901804
aF-338.9104501646252
aF-261.64841981232166
aF-154.50947201372082
aF-48.66591271921891
aF-29.592018005140062
aF36.78037258876839
aF170.29396697795005
aF296.7283639252594
aF602.3414611272315
asg5
F0.7366732585451952
sg6
F0.3255210631477693
sg7
I98
sg8
F0.01934988266964294
sg9
F1.5646865182297562
sg10
F0.17272833432626392
sg11
F0.010768539427084535
saF-952.9347388671273
aa(lp270
(dp271
g3
(lp272
F-85.88005476638341
aF-34.15171506492254
aF-32.512512167915816
aF-30.259437993191
aF6.701867453002933
aF30.962329149954712
aF33.09821070185831
aF45.82557775636474
aF214.92125253285826
aF523.6898471793697
asg5
F0.7374740835150901
sg6
F0.32512180712569266
sg7
I98
sg8
F0.01935188529227006
sg9
F1.5646865182297562
sg10
F0.17272833432626392
sg11
F0.345660651124103
saF-152.54428199922177
aa(lp273
(dp274
g3
(lp275
F-85.88005476638341
aF-34.15171506492254
aF-32.512512167915816
aF-30.259437993191
aF6.701867453002933
aF15.066001940000888
aF30.962329149954712
aF79.90388473773783
aF214.92125253285826
aF523.6898471793697
asg5
F0.7364242192426298
sg6
F0.3258404679654306
sg7
I96
sg8
F0.019360555859231143
sg9
F1.5646865182297562
sg10
F0.17272833432626392
sg11
F0.3455400694478179
saF-152.54428199922177
aa(lp276
(dp277
g3
(lp278
F-167.67869784051948
aF-131.7480130714623
aF-116.88482594224672
aF-82.56728915773954
aF-52.17058040636937
aF0.702880379970793
aF23.306353788756155
aF161.39545818353827
aF178.60932372765274
aF496.58792755346326
asg5
F0.736381251761288
sg6
F0.3258404679654306
sg7
I117
sg8
F0.019358775128194002
sg9
F1.5646865182297562
sg10
F0.17272833432626392
sg11
F0.2861327656266925
saF-416.3115368542285
aa(lp279
(dp280
g3
(lp281
F-85.88005476638341
aF-53.574435272149
aF-43.55627480138878
aF-42.28511305510767
aF6.701867453002933
aF41.48235291678975
aF45.82557775636474
aF68.99576468987925
aF214.92125253285826
aF575.9588192832498
asg5
F0.8937373416479657
sg6
F0.3258404679654306
sg7
I97
sg8
F0.019352836481223407
sg9
F1.5646865182297562
sg10
F0.17272833432626392
sg11
F0.3456141196058685
saF-183.0107648399212
aa(lp282
(dp283
g3
(lp284
F-85.88005476638341
aF-34.15171506492254
aF-32.512512167915816
aF-30.259437993191
aF6.701867453002933
aF30.962329149954712
aF33.09821070185831
aF45.82557775636474
aF214.92125253285826
aF523.6898471793697
asg5
F0.7351229007039937
sg6
F0.32456284869478536
sg7
I117
sg8
F0.01935388791489718
sg9
F1.5646865182297562
sg10
F0.17272833432626392
sg11
F0.3455424043627114
saF-152.54428199922177
aa(lp285
(dp286
g3
(lp287
F-85.88005476638341
aF-34.15171506492254
aF-32.512512167915816
aF-30.259437993191
aF6.701867453002933
aF30.962329149954712
aF33.09821070185831
aF45.82557775636474
aF214.92125253285826
aF523.6898471793697
asg5
F0.7363494284902605
sg6
F0.32456284869478536
sg7
I106
sg8
F0.01934988266964294
sg9
F1.5646865182297562
sg10
F0.17272833432626392
sg11
F0.3455866009660524
saF-152.54428199922177
aa(lp288
(dp289
g3
(lp290
F-85.88005476638341
aF-34.15171506492254
aF-32.512512167915816
aF-30.259437993191
aF6.701867453002933
aF22.662875240224025
aF30.962329149954712
aF45.82557775636474
aF214.92125253285826
aF523.6898471793697
asg5
F0.7360926281526865
sg6
F0.32456284869478536
sg7
I98
sg8
F0.019360555859231143
sg9
F1.5646865182297562
sg10
F0.17272833432626392
sg11
F0.34547068911955425
saF-152.54428199922177
aa(lp291
(dp292
g3
(lp293
F-85.88005476638341
aF-34.15171506492254
aF-32.512512167915816
aF-30.259437993191
aF6.701867453002933
aF15.066001940000888
aF30.962329149954712
aF79.90388473773783
aF214.92125253285826
aF523.6898471793697
asg5
F0.7364242192426298
sg6
F0.3258404679654306
sg7
I113
sg8
F0.01935097177542644
sg9
F1.5646865182297562
sg10
F0.17272833432626392
sg11
F0.3455686721552631
saF-152.54428199922177
aa(lp294
(dp295
g3
(lp296
F-85.88005476638341
aF-34.15171506492254
aF-32.512512167915816
aF-30.259437993191
aF6.701867453002933
aF30.962329149954712
aF45.82557775636474
aF79.90388473773783
aF214.92125253285826
aF523.6898471793697
asg5
F0.7368099928543197
sg6
F0.3258404679654306
sg7
I97
sg8
F0.019351631851879048
sg9
F1.5646865182297562
sg10
F0.17272833432626392
sg11
F0.3455770945268432
saF-152.54428199922177
aa(lp297
(dp298
g3
(lp299
F-85.88005476638341
aF-34.15171506492254
aF-32.512512167915816
aF-30.259437993191
aF6.701867453002933
aF30.962329149954712
aF45.82557775636474
aF79.90388473773783
aF214.92125253285826
aF523.6898471793697
asg5
F0.7363494284902605
sg6
F0.3255210631477693
sg7
I98
sg8
F0.019360802185193305
sg9
F1.5646865182297562
sg10
F0.17272833432626392
sg11
F0.3455270606362685
saF-152.54428199922177
aa(lp300
(dp301
g3
(lp302
F-95.11358956672245
aF-64.35747458103515
aF-34.15171506492254
aF-32.512512167915816
aF6.701867453002933
aF30.962329149954712
aF37.69832449921819
aF45.82557775636474
aF211.00688683802468
aF591.2297380747584
asg5
F0.7369635143090061
sg6
F0.3258404679654306
sg7
I80
sg8
F0.019349884943959353
sg9
F1.5646865182297562
sg10
F0.17272833432626392
sg11
F0.343248109351418
saF-193.62277921268014
aa(lp303
(dp304
g3
(lp305
F-85.88005476638341
aF-34.15171506492254
aF-32.512512167915816
aF-30.259437993191
aF6.701867453002933
aF15.066001940000888
aF30.962329149954712
aF68.99576468987925
aF214.92125253285826
aF523.6898471793697
asg5
F0.7364242192426298
sg6
F0.3258404679654306
sg7
I101
sg8
F0.019364442023710092
sg9
F1.5646865182297562
sg10
F0.17272833432626392
sg11
F0.34547068911955425
saF-152.54428199922177
aa(lp306
(dp307
g3
(lp308
F-85.88005476638341
aF-34.15171506492254
aF-32.512512167915816
aF-30.259437993191
aF6.701867453002933
aF15.066001940000888
aF30.962329149954712
aF79.90388473773783
aF214.92125253285826
aF523.6898471793697
asg5
F0.7364242192426298
sg6
F0.3258404679654306
sg7
I97
sg8
F0.01934988266964294
sg9
F1.5646865182297562
sg10
F0.17272833432626392
sg11
F0.3455400694478179
saF-152.54428199922177
aa.