(lp0
(lp1
(dp2
S'winnings'
p3
(lp4
F-95.11358956672245
aF-53.565255737528446
aF-36.398494401403354
aF-32.512512167915816
aF-30.259437993191
aF-17.71975697310677
aF30.962329149954712
aF127.64774417036188
aF276.1920765474795
aF591.4093959428933
asS'end_weight'
p5
F0.7293577369675048
sS'close_match_threshold'
p6
F0.3207299908828496
sS'history_in_matches'
p7
I91
sS'start_weight'
p8
F0.01936587519294449
sS'over_power_threshold'
p9
F1.5646865182297562
sS'over_power_extra'
p10
F0.17272833432626392
sS'close_match_trim'
p11
F0.34539597184296267
saF-185.07733970565425
aa(lp12
(dp13
g3
(lp14
F-95.11358956672245
aF-53.565255737528446
aF-36.398494401403354
aF-32.512512167915816
aF-30.259437993191
aF-7.696489187117663
aF30.962329149954712
aF127.64774417036188
aF276.1920765474795
aF523.6898471793697
asg5
F0.7293577369675048
sg6
F0.3207299908828496
sg7
I91
sg8
F0.01937160786988208
sg9
F1.5646865182297562
sg10
F0.17272833432626392
sg11
F0.34571618874264093
saF-185.07733970565425
aa(lp15
(dp16
g3
(lp17
F-95.11358956672245
aF-53.565255737528446
aF-36.398494401403354
aF-32.512512167915816
aF-30.259437993191
aF-17.71975697310677
aF30.962329149954712
aF127.64774417036188
aF276.1920765474795
aF591.4093959428933
asg5
F0.7293577369675048
sg6
F0.3207299908828496
sg7
I91
sg8
F0.01937160786988208
sg9
F1.5646865182297562
sg10
F0.17272833432626392
sg11
F0.34539597184296267
saF-185.07733970565425
aa(lp18
(dp19
g3
(lp20
F-104.25385633877579
aF-53.21732253066875
aF-34.45472689381006
aF-26.723780489773617
aF-17.71975697310677
aF-1.0743512532371824
aF18.677527892097032
aF127.64774417036188
aF264.0378662946455
aF508.89674186694606
asg5
F0.819345871164096
sg6
F0.3207299908828496
sg7
I97
sg8
F0.01687263901824998
sg9
F1.5646865182297562
sg10
F0.17231694715058204
sg11
F0.3460364056423192
saF-191.9259057632546
aa(lp21
(dp22
g3
(lp23
F-104.25385633877579
aF-53.21732253066875
aF-34.45472689381006
aF-26.723780489773617
aF-17.71975697310677
aF-1.0743512532371824
aF18.677527892097032
aF127.64774417036188
aF264.0378662946455
aF508.89674186694606
asg5
F0.819345871164096
sg6
F0.3207299908828496
sg7
I97
sg8
F0.01687263901824998
sg9
F1.5646865182297562
sg10
F0.17231694715058204
sg11
F0.3460364056423192
saF-191.9259057632546
aa(lp24
(dp25
g3
(lp26
F-95.11358956672245
aF-62.780783919247824
aF-34.45472689381006
aF-32.512512167915816
aF-26.723780489773617
aF-17.71975697310677
aF41.48235291678975
aF127.64774417036188
aF276.1920765474795
aF575.9588192832498
asg5
F0.7699393877039006
sg6
F0.3207299908828496
sg7
I89
sg8
F0.01757680267253757
sg9
F1.5646865182297562
sg10
F0.1728589530897201
sg11
F0.34539597184296267
saF-192.34910037978034
aa(lp27
(dp28
g3
(lp29
F-104.25385633877579
aF-53.565255737528446
aF-34.55032543569996
aF-32.512512167915816
aF-27.641779629942903
aF-26.723780489773617
aF8.387855893186838
aF127.64774417036188
aF264.0378662946455
aF591.4093959428933
asg5
F0.7344554703984464
sg6
F0.3207299908828496
sg7
I115
sg8
F0.0193601425160069
sg9
F1.5646865182297562
sg10
F0.17231694715058204
sg11
F0.34475553804360615
saF-192.3694375120042
aa(lp30
(dp31
g3
(lp32
F-104.25385633877579
aF-53.565255737528446
aF-34.55032543569996
aF-32.512512167915816
aF-26.723780489773617
aF-7.696489187117663
aF8.387855893186838
aF139.15435380475355
aF264.0378662946455
aF523.6898471793697
asg5
F0.6663716704091556
sg6
F0.3207299908828496
sg7
I93
sg8
F0.01757680267253757
sg9
F1.5646865182297562
sg10
F0.17231694715058204
sg11
F0.3460364056423192
saF-192.3694375120042
aa(lp33
(dp34
g3
(lp35
F-104.25385633877579
aF-53.565255737528446
aF-34.55032543569996
aF-32.512512167915816
aF-26.723780489773617
aF-7.696489187117663
aF8.387855893186838
aF139.15435380475355
aF264.0378662946455
aF523.6898471793697
asg5
F0.7395532038293879
sg6
F0.3207299908828496
sg7
I98
sg8
F0.019138658204807632
sg9
F1.5646865182297562
sg10
F0.17231694715058204
sg11
F0.3460364056423192
saF-192.3694375120042
aa(lp36
(dp37
g3
(lp38
F-104.25385633877579
aF-53.565255737528446
aF-34.55032543569996
aF-32.512512167915816
aF-26.723780489773617
aF-7.696489187117663
aF8.387855893186838
aF139.15435380475355
aF264.0378662946455
aF523.6898471793697
asg5
F0.7341071322978252
sg6
F0.3207299908828496
sg7
I92
sg8
F0.0193601425160069
sg9
F1.5646865182297562
sg10
F0.17231694715058204
sg11
F0.3460364056423192
saF-192.3694375120042
aa(lp39
(dp40
g3
(lp41
F-104.25385633877579
aF-53.565255737528446
aF-34.55032543569996
aF-32.512512167915816
aF-26.723780489773617
aF-7.696489187117663
aF8.387855893186838
aF139.15435380475355
aF264.0378662946455
aF523.6898471793697
asg5
F0.7395532038293879
sg6
F0.3207299908828496
sg7
I82
sg8
F0.0193601425160069
sg9
F1.5646865182297562
sg10
F0.17231301351964395
sg11
F0.3460364056423192
saF-192.3694375120042
aa(lp42
(dp43
g3
(lp44
F-104.25385633877579
aF-53.565255737528446
aF-34.55032543569996
aF-32.512512167915816
aF-26.723780489773617
aF-7.696489187117663
aF8.387855893186838
aF139.15435380475355
aF264.0378662946455
aF523.6898471793697
asg5
F0.7395532038293879
sg6
F0.3207299908828496
sg7
I82
sg8
F0.0193601425160069
sg9
F1.5646865182297562
sg10
F0.17231301351964395
sg11
F0.3460364056423192
saF-192.3694375120042
aa(lp45
(dp46
g3
(lp47
F-104.25385633877579
aF-53.565255737528446
aF-34.55032543569996
aF-32.512512167915816
aF-26.723780489773617
aF-7.696489187117663
aF8.387855893186838
aF139.15435380475355
aF264.0378662946455
aF523.6898471793697
asg5
F0.7318342612784823
sg6
F0.3207299908828496
sg7
I98
sg8
F0.018917173893608363
sg9
F1.5646865182297562
sg10
F0.17231301351964395
sg11
F0.3460364056423192
saF-192.3694375120042
aa(lp48
(dp49
g3
(lp50
F-104.25385633877579
aF-53.565255737528446
aF-34.55032543569996
aF-32.512512167915816
aF-27.641779629942903
aF-26.723780489773617
aF8.387855893186838
aF127.64774417036188
aF264.0378662946455
aF591.4093959428933
asg5
F0.7344554703984464
sg6
F0.3207299908828496
sg7
I103
sg8
F0.0193601425160069
sg9
F1.5646865182297562
sg10
F0.17231694715058204
sg11
F0.34475553804360615
saF-192.3694375120042
aa(lp51
(dp52
g3
(lp53
F-104.25385633877579
aF-53.565255737528446
aF-34.55032543569996
aF-32.512512167915816
aF-26.723780489773617
aF-7.696489187117663
aF8.387855893186838
aF127.64774417036188
aF264.0378662946455
aF523.6898471793697
asg5
F0.7475667787981894
sg6
F0.3207299908828496
sg7
I103
sg8
F0.0193601425160069
sg9
F1.5646865182297562
sg10
F0.17231694715058204
sg11
F0.34569484094932906
saF-192.3694375120042
aa(lp54
(dp55
g3
(lp56
F-104.25385633877579
aF-53.565255737528446
aF-34.55032543569996
aF-32.512512167915816
aF-27.641779629942903
aF-26.723780489773617
aF8.387855893186838
aF127.64774417036188
aF264.0378662946455
aF591.4093959428933
asg5
F0.7341071322978252
sg6
F0.3207299908828496
sg7
I82
sg8
F0.0193601425160069
sg9
F1.5646865182297562
sg10
F0.17231301351964395
sg11
F0.34467014687035863
saF-192.3694375120042
aa(lp57
(dp58
g3
(lp59
F-104.25385633877579
aF-53.565255737528446
aF-34.55032543569996
aF-32.512512167915816
aF-26.723780489773617
aF-7.696489187117663
aF8.387855893186838
aF127.64774417036188
aF264.0378662946455
aF523.6898471793697
asg5
F0.7343107855894596
sg6
F0.3207299908828496
sg7
I93
sg8
F0.018917173893608363
sg9
F1.5646865182297562
sg10
F0.17230907988870584
sg11
F0.34586562329582415
saF-192.3694375120042
aa(lp60
(dp61
g3
(lp62
F-104.25385633877579
aF-53.565255737528446
aF-34.55032543569996
aF-32.512512167915816
aF-26.723780489773617
aF-7.696489187117663
aF8.387855893186838
aF139.15435380475355
aF264.0378662946455
aF523.6898471793697
asg5
F0.7388565276281456
sg6
F0.3207299908828496
sg7
I82
sg8
F0.0193601425160069
sg9
F1.5646865182297562
sg10
F0.17231694715058204
sg11
F0.3460364056423192
saF-192.3694375120042
aa(lp63
(dp64
g3
(lp65
F-104.25385633877579
aF-53.565255737528446
aF-34.55032543569996
aF-32.512512167915816
aF-26.723780489773617
aF-7.696489187117663
aF8.387855893186838
aF139.15435380475355
aF264.0378662946455
aF523.6898471793697
asg5
F0.6663716704091556
sg6
F0.3207299908828496
sg7
I91
sg8
F0.01757680267253757
sg9
F1.5646865182297562
sg10
F0.17231694715058204
sg11
F0.3460364056423192
saF-192.3694375120042
aa(lp66
(dp67
g3
(lp68
F-104.25385633877579
aF-53.565255737528446
aF-34.55032543569996
aF-32.512512167915816
aF-26.723780489773617
aF-17.71975697310677
aF8.387855893186838
aF127.64774417036188
aF264.0378662946455
aF591.4093959428933
asg5
F0.7395532038293879
sg6
F0.3207299908828496
sg7
I102
sg8
F0.0193601425160069
sg9
F1.5646865182297562
sg10
F0.17231694715058204
sg11
F0.34535327625633894
saF-192.3694375120042
aa(lp69
(dp70
g3
(lp71
F-104.25385633877579
aF-53.565255737528446
aF-34.55032543569996
aF-32.512512167915816
aF-26.723780489773617
aF-7.696489187117663
aF8.387855893186838
aF139.15435380475355
aF264.0378662946455
aF523.6898471793697
asg5
F0.7392638342114144
sg6
F0.3207299908828496
sg7
I105
sg8
F0.0193601425160069
sg9
F1.5646865182297562
sg10
F0.17231694715058204
sg11
F0.3460364056423192
saF-192.3694375120042
aa(lp72
(dp73
g3
(lp74
F-104.25385633877579
aF-53.565255737528446
aF-34.55032543569996
aF-32.512512167915816
aF-26.723780489773617
aF-7.696489187117663
aF8.387855893186838
aF139.15435380475355
aF264.0378662946455
aF523.6898471793697
asg5
F0.6663716704091556
sg6
F0.3207299908828496
sg7
I109
sg8
F0.01757680267253757
sg9
F1.5646865182297562
sg10
F0.17231694715058204
sg11
F0.3460364056423192
saF-192.3694375120042
aa(lp75
(dp76
g3
(lp77
F-104.25385633877579
aF-53.565255737528446
aF-34.55032543569996
aF-32.512512167915816
aF-26.723780489773617
aF-7.696489187117663
aF8.387855893186838
aF139.15435380475355
aF264.0378662946455
aF523.6898471793697
asg5
F0.6663716704091556
sg6
F0.3207299908828496
sg7
I107
sg8
F0.01757680267253757
sg9
F1.5646865182297562
sg10
F0.17231694715058204
sg11
F0.3460364056423192
saF-192.3694375120042
aa(lp78
(dp79
g3
(lp80
F-104.25385633877579
aF-53.565255737528446
aF-34.55032543569996
aF-32.512512167915816
aF-26.723780489773617
aF-7.696489187117663
aF8.387855893186838
aF139.15435380475355
aF264.0378662946455
aF523.6898471793697
asg5
F0.7373635530452048
sg6
F0.3207299908828496
sg7
I97
sg8
F0.0193601425160069
sg9
F1.5646865182297562
sg10
F0.17231694715058204
sg11
F0.3460364056423192
saF-192.3694375120042
aa(lp81
(dp82
g3
(lp83
F-104.25385633877579
aF-53.565255737528446
aF-34.55032543569996
aF-32.512512167915816
aF-26.723780489773617
aF-7.696489187117663
aF8.387855893186838
aF139.15435380475355
aF264.0378662946455
aF523.6898471793697
asg5
F0.7395532038293879
sg6
F0.3207299908828496
sg7
I82
sg8
F0.0193601425160069
sg9
F1.5646865182297562
sg10
F0.17231694715058204
sg11
F0.3460364056423192
saF-192.3694375120042
aa(lp84
(dp85
g3
(lp86
F-104.25385633877579
aF-53.565255737528446
aF-34.55032543569996
aF-32.512512167915816
aF-26.723780489773617
aF-17.71975697310677
aF8.387855893186838
aF127.64774417036188
aF264.0378662946455
aF591.4093959428933
asg5
F0.7392638342114144
sg6
F0.3207299908828496
sg7
I116
sg8
F0.0193601425160069
sg9
F1.5646865182297562
sg10
F0.17231694715058204
sg11
F0.34535327625633894
saF-192.3694375120042
aa(lp87
(dp88
g3
(lp89
F-104.25385633877579
aF-53.565255737528446
aF-34.55032543569996
aF-32.512512167915816
aF-26.723780489773617
aF-7.696489187117663
aF8.387855893186838
aF139.15435380475355
aF264.0378662946455
aF523.6898471793697
asg5
F0.7388565276281456
sg6
F0.3207299908828496
sg7
I82
sg8
F0.0193601425160069
sg9
F1.5646865182297562
sg10
F0.17231301351964395
sg11
F0.3460364056423192
saF-192.3694375120042
aa(lp90
(dp91
g3
(lp92
F-104.25385633877579
aF-53.565255737528446
aF-34.55032543569996
aF-32.512512167915816
aF-27.641779629942903
aF-26.723780489773617
aF8.387855893186838
aF127.64774417036188
aF264.0378662946455
aF591.4093959428933
asg5
F0.7293577369675048
sg6
F0.3207299908828496
sg7
I93
sg8
F0.019138658204807632
sg9
F1.5646865182297562
sg10
F0.17231301351964395
sg11
F0.34467014687035863
saF-192.3694375120042
aa(lp93
(dp94
g3
(lp95
F-104.25385633877579
aF-53.565255737528446
aF-34.55032543569996
aF-32.512512167915816
aF-26.723780489773617
aF-7.696489187117663
aF8.387855893186838
aF139.15435380475355
aF264.0378662946455
aF523.6898471793697
asg5
F0.7343107855894596
sg6
F0.3207299908828496
sg7
I95
sg8
F0.018917173893608363
sg9
F1.5646865182297562
sg10
F0.17231301351964395
sg11
F0.3460364056423192
saF-192.3694375120042
aa(lp96
(dp97
g3
(lp98
F-104.25385633877579
aF-53.565255737528446
aF-36.398494401403354
aF-34.55032543569996
aF-32.512512167915816
aF-17.71975697310677
aF8.387855893186838
aF127.64774417036188
aF264.0378662946455
aF591.4093959428933
asg5
F0.7293577369675048
sg6
F0.3207299908828496
sg7
I94
sg8
F0.0193601425160069
sg9
F1.5646865182297562
sg10
F0.17231694715058204
sg11
F0.34539597184296267
saF-194.2176064777076
aa(lp99
(dp100
g3
(lp101
F-104.25385633877579
aF-53.565255737528446
aF-36.398494401403354
aF-34.55032543569996
aF-32.512512167915816
aF-7.696489187117663
aF8.387855893186838
aF127.64774417036188
aF264.0378662946455
aF523.6898471793697
asg5
F0.7293577369675048
sg6
F0.3207299908828496
sg7
I93
sg8
F0.0193601425160069
sg9
F1.5646865182297562
sg10
F0.17230907988870584
sg11
F0.34571618874264093
saF-194.2176064777076
aa(lp102
(dp103
g3
(lp104
F-104.25385633877579
aF-53.565255737528446
aF-36.398494401403354
aF-34.55032543569996
aF-32.512512167915816
aF-17.71975697310677
aF8.387855893186838
aF127.64774417036188
aF264.0378662946455
aF591.4093959428933
asg5
F0.7293577369675048
sg6
F0.3207299908828496
sg7
I93
sg8
F0.01937160786988208
sg9
F1.5646865182297562
sg10
F0.17231694715058204
sg11
F0.34535327625633894
saF-194.2176064777076
aa(lp105
(dp106
g3
(lp107
F-104.25385633877579
aF-53.565255737528446
aF-36.398494401403354
aF-34.55032543569996
aF-32.512512167915816
aF-7.696489187117663
aF8.387855893186838
aF127.64774417036188
aF264.0378662946455
aF523.6898471793697
asg5
F0.7293577369675048
sg6
F0.3207299908828496
sg7
I102
sg8
F0.0193601425160069
sg9
F1.5646865182297562
sg10
F0.17231694715058204
sg11
F0.3459261783511205
saF-194.2176064777076
aa(lp108
(dp109
g3
(lp110
F-104.25385633877579
aF-53.565255737528446
aF-36.398494401403354
aF-34.55032543569996
aF-32.512512167915816
aF-17.71975697310677
aF8.387855893186838
aF127.64774417036188
aF264.0378662946455
aF591.4093959428933
asg5
F0.7293577369675048
sg6
F0.3207299908828496
sg7
I103
sg8
F0.019363008854475696
sg9
F1.5646865182297562
sg10
F0.17231694715058204
sg11
F0.34539597184296267
saF-194.2176064777076
aa(lp111
(dp112
g3
(lp113
F-104.25385633877579
aF-53.565255737528446
aF-36.398494401403354
aF-34.55032543569996
aF-32.512512167915816
aF-17.71975697310677
aF8.387855893186838
aF127.64774417036188
aF264.0378662946455
aF591.4093959428933
asg5
F0.7293577369675048
sg6
F0.3207299908828496
sg7
I115
sg8
F0.0193601425160069
sg9
F1.5646865182297562
sg10
F0.17230907988870584
sg11
F0.34539597184296267
saF-194.2176064777076
aa(lp114
(dp115
g3
(lp116
F-104.25385633877579
aF-53.565255737528446
aF-36.398494401403354
aF-34.55032543569996
aF-32.512512167915816
aF-17.71975697310677
aF8.387855893186838
aF127.64774417036188
aF264.0378662946455
aF591.4093959428933
asg5
F0.7293577369675048
sg6
F0.3207299908828496
sg7
I102
sg8
F0.0193601425160069
sg9
F1.5646865182297562
sg10
F0.17231694715058204
sg11
F0.34526788508309136
saF-194.2176064777076
aa(lp117
(dp118
g3
(lp119
F-104.25385633877579
aF-53.565255737528446
aF-36.398494401403354
aF-34.55032543569996
aF-32.512512167915816
aF-27.641779629942903
aF8.387855893186838
aF127.64774417036188
aF264.0378662946455
aF591.4093959428933
asg5
F0.7293577369675048
sg6
F0.3207299908828496
sg7
I110
sg8
F0.0193615756852413
sg9
F1.5646865182297562
sg10
F0.17231694715058204
sg11
F0.34475553804360615
saF-194.2176064777076
aa(lp120
(dp121
g3
(lp122
F-104.25385633877579
aF-53.565255737528446
aF-36.398494401403354
aF-34.55032543569996
aF-32.512512167915816
aF-27.641779629942903
aF8.387855893186838
aF127.64774417036188
aF264.0378662946455
aF591.4093959428933
asg5
F0.7293577369675048
sg6
F0.3207299908828496
sg7
I96
sg8
F0.019363008854475696
sg9
F1.5646865182297562
sg10
F0.17231301351964395
sg11
F0.34475553804360615
saF-194.2176064777076
aa(lp123
(dp124
g3
(lp125
F-104.25385633877579
aF-53.565255737528446
aF-36.398494401403354
aF-34.55032543569996
aF-32.512512167915816
aF-7.696489187117663
aF8.387855893186838
aF127.64774417036188
aF264.0378662946455
aF523.6898471793697
asg5
F0.7293577369675048
sg6
F0.3207299908828496
sg7
I110
sg8
F0.0193601425160069
sg9
F1.5646865182297562
sg10
F0.17231694715058204
sg11
F0.34586562329582415
saF-194.2176064777076
aa(lp126
(dp127
g3
(lp128
F-104.25385633877579
aF-53.565255737528446
aF-36.398494401403354
aF-34.55032543569996
aF-32.512512167915816
aF-27.641779629942903
aF8.387855893186838
aF127.64774417036188
aF264.0378662946455
aF591.4093959428933
asg5
F0.7293577369675048
sg6
F0.3207299908828496
sg7
I97
sg8
F0.0193601425160069
sg9
F1.5646865182297562
sg10
F0.17231694715058204
sg11
F0.34467014687035863
saF-194.2176064777076
aa(lp129
(dp130
g3
(lp131
F-104.25385633877579
aF-53.565255737528446
aF-36.398494401403354
aF-34.55032543569996
aF-32.512512167915816
aF-7.696489187117663
aF8.387855893186838
aF139.15435380475355
aF264.0378662946455
aF523.6898471793697
asg5
F0.7293577369675048
sg6
F0.3207299908828496
sg7
I102
sg8
F0.0193601425160069
sg9
F1.5646865182297562
sg10
F0.17231694715058204
sg11
F0.3460364056423192
saF-194.2176064777076
aa(lp132
(dp133
g3
(lp134
F-104.25385633877579
aF-53.565255737528446
aF-36.398494401403354
aF-34.55032543569996
aF-32.512512167915816
aF-17.71975697310677
aF8.387855893186838
aF127.64774417036188
aF264.0378662946455
aF591.4093959428933
asg5
F0.7293577369675048
sg6
F0.3207299908828496
sg7
I103
sg8
F0.0193601425160069
sg9
F1.5646865182297562
sg10
F0.17231694715058204
sg11
F0.34535327625633894
saF-194.2176064777076
aa(lp135
(dp136
g3
(lp137
F-104.25385633877579
aF-53.565255737528446
aF-36.398494401403354
aF-34.55032543569996
aF-32.512512167915816
aF-7.696489187117663
aF8.387855893186838
aF139.15435380475355
aF264.0378662946455
aF523.6898471793697
asg5
F0.7293577369675048
sg6
F0.3207299908828496
sg7
I93
sg8
F0.0193601425160069
sg9
F1.5646865182297562
sg10
F0.17230907988870584
sg11
F0.3460364056423192
saF-194.2176064777076
aa(lp138
(dp139
g3
(lp140
F-104.25385633877579
aF-53.565255737528446
aF-36.398494401403354
aF-34.55032543569996
aF-32.512512167915816
aF-7.696489187117663
aF8.387855893186838
aF127.64774417036188
aF264.0378662946455
aF523.6898471793697
asg5
F0.7293577369675048
sg6
F0.3207299908828496
sg7
I91
sg8
F0.01936587519294449
sg9
F1.5646865182297562
sg10
F0.17231694715058204
sg11
F0.34571618874264093
saF-194.2176064777076
aa(lp141
(dp142
g3
(lp143
F-104.25385633877579
aF-53.565255737528446
aF-36.398494401403354
aF-34.55032543569996
aF-32.512512167915816
aF-17.71975697310677
aF8.387855893186838
aF127.64774417036188
aF264.0378662946455
aF591.4093959428933
asg5
F0.7293577369675048
sg6
F0.3207299908828496
sg7
I93
sg8
F0.01937160786988208
sg9
F1.5646865182297562
sg10
F0.17231694715058204
sg11
F0.34535327625633894
saF-194.2176064777076
aa(lp144
(dp145
g3
(lp146
F-104.25385633877579
aF-53.565255737528446
aF-36.398494401403354
aF-34.55032543569996
aF-32.512512167915816
aF-7.696489187117663
aF8.387855893186838
aF139.15435380475355
aF264.0378662946455
aF523.6898471793697
asg5
F0.7293577369675048
sg6
F0.3207299908828496
sg7
I93
sg8
F0.0193601425160069
sg9
F1.5646865182297562
sg10
F0.17230907988870584
sg11
F0.3460364056423192
saF-194.2176064777076
aa(lp147
(dp148
g3
(lp149
F-104.25385633877579
aF-53.565255737528446
aF-36.398494401403354
aF-34.55032543569996
aF-32.512512167915816
aF-7.696489187117663
aF8.387855893186838
aF139.15435380475355
aF264.0378662946455
aF523.6898471793697
asg5
F0.7293577369675048
sg6
F0.3207299908828496
sg7
I103
sg8
F0.0193601425160069
sg9
F1.5646865182297562
sg10
F0.17231694715058204
sg11
F0.3460364056423192
saF-194.2176064777076
aa(lp150
(dp151
g3
(lp152
F-104.25385633877579
aF-53.565255737528446
aF-36.398494401403354
aF-34.55032543569996
aF-32.512512167915816
aF-7.696489187117663
aF8.387855893186838
aF139.15435380475355
aF264.0378662946455
aF523.6898471793697
asg5
F0.7293577369675048
sg6
F0.3207299908828496
sg7
I93
sg8
F0.0193601425160069
sg9
F1.5646865182297562
sg10
F0.17231694715058204
sg11
F0.3460364056423192
saF-194.2176064777076
aa(lp153
(dp154
g3
(lp155
F-104.25385633877579
aF-53.565255737528446
aF-36.398494401403354
aF-34.55032543569996
aF-32.512512167915816
aF-27.641779629942903
aF8.387855893186838
aF127.64774417036188
aF264.0378662946455
aF591.4093959428933
asg5
F0.7293577369675048
sg6
F0.3207299908828496
sg7
I102
sg8
F0.0193601425160069
sg9
F1.5646865182297562
sg10
F0.17231694715058204
sg11
F0.34467014687035863
saF-194.2176064777076
aa(lp156
(dp157
g3
(lp158
F-104.25385633877579
aF-53.565255737528446
aF-36.398494401403354
aF-34.55032543569996
aF-32.512512167915816
aF-7.696489187117663
aF8.387855893186838
aF139.15435380475355
aF264.0378662946455
aF523.6898471793697
asg5
F0.7293577369675048
sg6
F0.3207299908828496
sg7
I107
sg8
F0.0193601425160069
sg9
F1.5646865182297562
sg10
F0.17231694715058204
sg11
F0.3460364056423192
saF-194.2176064777076
aa(lp159
(dp160
g3
(lp161
F-104.25385633877579
aF-53.565255737528446
aF-36.398494401403354
aF-34.55032543569996
aF-32.512512167915816
aF-7.696489187117663
aF8.387855893186838
aF127.64774417036188
aF264.0378662946455
aF523.6898471793697
asg5
F0.7293577369675048
sg6
F0.3207299908828496
sg7
I97
sg8
F0.0193601425160069
sg9
F1.5646865182297562
sg10
F0.17231694715058204
sg11
F0.34586562329582415
saF-194.2176064777076
aa(lp162
(dp163
g3
(lp164
F-104.25385633877579
aF-53.565255737528446
aF-34.55032543569996
aF-32.512512167915816
aF-26.723780489773617
aF-17.71975697310677
aF8.387855893186838
aF127.64774417036188
aF264.0378662946455
aF591.4093959428933
asg5
F0.7293577369675048
sg6
F0.3207299908828496
sg7
I93
sg8
F0.019249400360407266
sg9
F1.5646865182297562
sg10
F0.17231301351964395
sg11
F0.34535327625633894
saF-192.3694375120042
aa(lp165
(dp166
g3
(lp167
F-276.40046642387335
aF-134.25410126602026
aF-107.45367257703572
aF-103.62467299232082
aF26.830160843591557
aF45.020652221171986
aF109.69408929639553
aF161.60794179695517
aF224.57981371466713
aF350.53195877319604
asg5
F0.7293577369675048
sg6
F0.43005888184494534
sg7
I91
sg8
F0.01937160786988208
sg9
F1.5646865182297562
sg10
F0.17272833432626392
sg11
F0.34571618874264093
saF-518.1082402669293
aa(lp168
(dp169
g3
(lp170
F-363.5360326422157
aF-283.49531221028815
aF-236.52603528834243
aF-141.3381734893186
aF20.529875665740292
aF64.93202510511173
aF121.3659356690116
aF218.53078297589673
aF419.4566407432967
aF528.9402152812565
asg5
F0.7373635530452048
sg6
F0.3207299908828496
sg7
I98
sg8
F0.0193601425160069
sg9
F1.5646865182297562
sg10
F0.17231694715058204
sg11
F0.021990227922596042
saF-883.5573801408462
aa(lp171
(dp172
g3
(lp173
F-237.08974816074124
aF-177.62783427559384
aF-98.41617692131695
aF-64.06941232552515
aF-52.28878477598789
aF32.3651060490115
aF55.48115595545187
aF115.84509786367857
aF195.159441273521
aF819.8861242999196
asg5
F0.5024149983363295
sg6
F0.22186379825024882
sg7
I82
sg8
F0.0193601425160069
sg9
F1.5646865182297562
sg10
F0.172314980335113
sg11
F0.34467014687035863
saF-513.133759357652
aa(lp174
(dp175
g3
(lp176
F-412.8544112053635
aF-388.2822723974366
aF-350.70825681132624
aF-266.2766053575094
aF-172.05302480405328
aF-65.29737574695707
aF62.34252701724904
aF73.42308912580029
aF356.238257074129
aF942.0220005288104
asg5
F0.7293577369675048
sg6
F0.3207299908828496
sg7
I98
sg8
F0.0193601425160069
sg9
F3.756647930991469
sg10
F0.17231694715058204
sg11
F0.3460364056423192
saF-1151.8449404141263
aa(lp177
(dp178
g3
(lp179
F-104.25385633877579
aF-53.565255737528446
aF-36.398494401403354
aF-34.55032543569996
aF-32.512512167915816
aF-17.71975697310677
aF8.387855893186838
aF127.64774417036188
aF264.0378662946455
aF591.4093959428933
asg5
F0.7293577369675048
sg6
F0.3207299908828496
sg7
I91
sg8
F0.0193601425160069
sg9
F1.5646865182297562
sg10
F0.17231694715058204
sg11
F0.34535327625633894
saF-194.2176064777076
aa(lp180
(dp181
g3
(lp182
F-104.25385633877579
aF-53.565255737528446
aF-34.55032543569996
aF-32.512512167915816
aF-26.723780489773617
aF-7.696489187117663
aF8.387855893186838
aF139.15435380475355
aF264.0378662946455
aF523.6898471793697
asg5
F0.6663716704091556
sg6
F0.3207299908828496
sg7
I93
sg8
F0.01757680267253757
sg9
F1.5646865182297562
sg10
F0.17231694715058204
sg11
F0.3460364056423192
saF-192.3694375120042
aa(lp183
(dp184
g3
(lp185
F-398.4801270420121
aF-150.49956453273035
aF-143.4287924339195
aF-138.32536187204676
aF5.30277122261441
aF36.007042126730084
aF120.93904428964265
aF136.47169896922014
aF264.21992408698407
aF814.6250849989253
asg5
F0.7318342612784823
sg6
F0.3207299908828496
sg7
I104
sg8
F0.639920497929707
sg9
F1.5646865182297562
sg10
F0.17231694715058204
sg11
F0.34586562329582415
saF-692.408484008662
aa(lp186
(dp187
g3
(lp188
F-262.8537694750912
aF-243.01222437584636
aF-218.03346156552902
aF-53.39837465043752
aF-37.99471386814798
aF-30.1767343635953
aF111.22815526363797
aF237.26238434920856
aF339.9605841080165
aF630.8912276685596
asg5
F0.7341071322978252
sg6
F0.3207299908828496
sg7
I104
sg8
F0.0193601425160069
sg9
F1.5646865182297562
sg10
F0.17231694715058204
sg11
F0.24214980347853526
saF-723.8994554164666
aa(lp189
(dp190
g3
(lp191
F-104.25385633877579
aF-53.565255737528446
aF-36.398494401403354
aF-34.55032543569996
aF-32.512512167915816
aF-27.641779629942903
aF29.07219654405685
aF127.64774417036188
aF264.0378662946455
aF591.4093959428933
asg5
F0.7293577369675048
sg6
F0.3207299908828496
sg7
I91
sg8
F0.0193615756852413
sg9
F1.5646865182297562
sg10
F0.172522640738423
sg11
F0.34475553804360615
saF-194.2176064777076
aa(lp192
(dp193
g3
(lp194
F-104.25385633877579
aF-53.565255737528446
aF-36.398494401403354
aF-34.55032543569996
aF-32.512512167915816
aF-17.71975697310677
aF8.387855893186838
aF127.64774417036188
aF264.0378662946455
aF591.4093959428933
asg5
F0.7293577369675048
sg6
F0.3207299908828496
sg7
I107
sg8
F0.0193601425160069
sg9
F1.5646865182297562
sg10
F0.17231694715058204
sg11
F0.34526788508309136
saF-194.2176064777076
aa(lp195
(dp196
g3
(lp197
F-104.25385633877579
aF-53.565255737528446
aF-34.55032543569996
aF-32.512512167915816
aF-27.641779629942903
aF-26.723780489773617
aF8.387855893186838
aF127.64774417036188
aF264.0378662946455
aF591.4093959428933
asg5
F0.7344554703984464
sg6
F0.3207299908828496
sg7
I115
sg8
F0.0193601425160069
sg9
F1.5646865182297562
sg10
F0.17231694715058204
sg11
F0.34467014687035863
saF-192.3694375120042
aa(lp198
(dp199
g3
(lp200
F-104.25385633877579
aF-53.565255737528446
aF-36.398494401403354
aF-34.55032543569996
aF-32.512512167915816
aF-7.696489187117663
aF8.387855893186838
aF127.64774417036188
aF264.0378662946455
aF523.6898471793697
asg5
F0.7293577369675048
sg6
F0.3207299908828496
sg7
I91
sg8
F0.01936587519294449
sg9
F1.5646865182297562
sg10
F0.17231694715058204
sg11
F0.34571618874264093
saF-194.2176064777076
aa(lp201
(dp202
g3
(lp203
F-508.12313210350305
aF-449.87643850459494
aF-342.3702607297778
aF-310.5629436939381
aF-295.36291351891725
aF-200.24137637194622
aF76.22564532351794
aF179.08240292959977
aF445.63993448223505
aF1000.4323794835257
asg5
F0.7293577369675048
sg6
F0.3207299908828496
sg7
I69
sg8
F0.0193601425160069
sg9
F1.5646865182297562
sg10
F0.008912260810428774
sg11
F0.3454920369128661
saF-1300.369831337876
aa(lp204
(dp205
g3
(lp206
F-104.25385633877579
aF-73.63191199272762
aF-53.565255737528446
aF-36.398494401403354
aF-34.55032543569996
aF-7.696489187117663
aF8.387855893186838
aF139.15435380475355
aF264.0378662946455
aF523.6898471793697
asg5
F0.6991682773104143
sg6
F0.3207299908828496
sg7
I102
sg8
F0.0193601425160069
sg9
F1.5646865182297562
sg10
F0.17231694715058204
sg11
F0.3460364056423192
saF-231.45102406903186
aa(lp207
(dp208
g3
(lp209
F-104.25385633877579
aF-62.780783919247824
aF-37.137465375744455
aF-32.512512167915816
aF-26.723780489773617
aF-15.046291606120235
aF8.387855893186838
aF127.64774417036188
aF264.0378662946455
aF575.9588192832498
asg5
F0.7341071322978252
sg6
F0.3207299908828496
sg7
I94
sg8
F0.018468472594272235
sg9
F1.5646865182297562
sg10
F0.172314980335113
sg11
F0.34467014687035863
saF-204.17210563376807
aa(lp210
(dp211
g3
(lp212
F-104.25385633877579
aF-62.780783919247824
aF-32.512512167915816
aF-26.723780489773617
aF-15.046291606120235
aF-7.696489187117663
aF8.387855893186838
aF139.15435380475355
aF264.0378662946455
aF523.6898471793697
asg5
F0.7395532038293879
sg6
F0.3207299908828496
sg7
I82
sg8
F0.01757680267253757
sg9
F1.5646865182297562
sg10
F0.17231694715058204
sg11
F0.3460364056423192
saF-199.54715242593943
aa(lp213
(dp214
g3
(lp215
F-327.48617226758995
aF-310.620824933589
aF-255.63570613283366
aF-202.9115302966859
aF-109.33262272647255
aF-107.21130836916598
aF136.449379279627
aF168.10542160767272
aF177.33741664090007
aF858.7392119122753
asg5
F0.7395532038293879
sg6
F0.3207299908828496
sg7
I115
sg8
F0.0193601425160069
sg9
F1.5646865182297562
sg10
F0.09791053598090022
sg11
F0.3453746240496508
saF-893.7427033340126
aa(lp216
(dp217
g3
(lp218
F-368.72927358723814
aF-201.94202398266827
aF-172.25869999847293
aF-148.06122534423434
aF2.372638435752833
aF13.35614577473325
aF22.250722493616195
aF166.46806991073436
aF201.8723577168737
aF240.1941698323949
asg5
F0.7293577369675048
sg6
F0.3207299908828496
sg7
I102
sg8
F0.3542122365161051
sg9
F1.5646865182297562
sg10
F0.17231694715058204
sg11
F0.3460364056423192
saF-742.9299975683793
aa(lp219
(dp220
g3
(lp221
F-443.78642417535536
aF-409.4724194300527
aF-366.28099686099506
aF-285.29796248211767
aF-262.5131761154885
aF-16.99039683968965
aF79.28888194456681
aF93.97250479013337
aF445.57684538554963
aF1129.394544339696
asg5
F0.7293577369675048
sg6
F0.3207299908828496
sg7
I96
sg8
F0.019363008854475696
sg9
F1.5646865182297562
sg10
F0.04473818678609729
sg11
F0.34505440714997254
saF-1219.5398404664031
aa(lp222
(dp223
g3
(lp224
F-416.729419471774
aF-388.2822723974366
aF-344.08283086042036
aF-266.2766053575094
aF-175.33805415919915
aF-65.29737574695707
aF29.541814034127356
aF69.02767232546717
aF352.64959488362115
aF942.0220005288104
asg5
F0.7341071322978252
sg6
F0.3207299908828496
sg7
I94
sg8
F0.0193601425160069
sg9
F4.506993500454967
sg10
F0.17231694715058204
sg11
F0.3460364056423192
saF-1149.094522729631
aa(lp225
(dp226
g3
(lp227
F-104.25385633877579
aF-53.21732253066875
aF-34.45472689381006
aF-26.723780489773617
aF-17.71975697310677
aF-1.0743512532371824
aF18.677527892097032
aF127.64774417036188
aF264.0378662946455
aF508.89674186694606
asg5
F0.8876880541210801
sg6
F0.3207299908828496
sg7
I98
sg8
F0.0183577304386726
sg9
F1.5646865182297562
sg10
F0.17231694715058204
sg11
F0.3460364056423192
saF-191.9259057632546
aa(lp228
(dp229
g3
(lp230
F-176.14575212400928
aF-125.12229711142936
aF-97.25522545805075
aF-42.11238564599387
aF-10.606815174944586
aF32.752390024799524
aF79.61414100486718
aF89.21886933817518
aF317.1127686116931
aF474.16982303265445
asg5
F0.7305959991229936
sg6
F0.3207299908828496
sg7
I75
sg8
F0.018917173893608363
sg9
F1.5646865182297562
sg10
F0.17231694715058204
sg11
F0.3460364056423192
saF-398.5232746934894
aa(lp231
(dp232
g3
(lp233
F-104.25385633877579
aF-62.780783919247824
aF-34.45472689381006
aF-32.512512167915816
aF-26.723780489773617
aF-7.696489187117663
aF18.677527892097032
aF139.15435380475355
aF264.0378662946455
aF523.6898471793697
asg5
F0.8282264681068461
sg6
F0.3207299908828496
sg7
I95
sg8
F0.018917173893608363
sg9
F1.5646865182297562
sg10
F0.17231694715058204
sg11
F0.3460364056423192
saF-201.48936715183368
aa(lp234
(dp235
g3
(lp236
F-95.11358956672245
aF-53.565255737528446
aF-36.398494401403354
aF-32.512512167915816
aF-30.259437993191
aF-7.696489187117663
aF30.962329149954712
aF127.64774417036188
aF276.1920765474795
aF523.6898471793697
asg5
F0.7293577369675048
sg6
F0.3207299908828496
sg7
I94
sg8
F0.01936587519294449
sg9
F1.5646865182297562
sg10
F0.17272833432626392
sg11
F0.34571618874264093
saF-185.07733970565425
aa(lp237
(dp238
g3
(lp239
F-104.25385633877579
aF-53.565255737528446
aF-36.398494401403354
aF-34.55032543569996
aF-32.512512167915816
aF-7.696489187117663
aF8.387855893186838
aF139.15435380475355
aF264.0378662946455
aF523.6898471793697
asg5
F0.7293577369675048
sg6
F0.3207299908828496
sg7
I93
sg8
F0.01936587519294449
sg9
F1.5646865182297562
sg10
F0.17231694715058204
sg11
F0.3460364056423192
saF-194.2176064777076
aa(lp240
(dp241
g3
(lp242
F-104.25385633877579
aF-53.565255737528446
aF-36.398494401403354
aF-34.55032543569996
aF-32.512512167915816
aF-17.71975697310677
aF8.387855893186838
aF127.64774417036188
aF264.0378662946455
aF591.4093959428933
asg5
F0.7293577369675048
sg6
F0.3207299908828496
sg7
I96
sg8
F0.01936587519294449
sg9
F1.5646865182297562
sg10
F0.17231694715058204
sg11
F0.3450330593566606
saF-194.2176064777076
aa(lp243
(dp244
g3
(lp245
F-398.2050720420725
aF-164.44350688726388
aF-145.12464902069644
aF-85.01752452772257
aF-82.61987249062906
aF26.05148421548597
aF110.65249596001763
aF228.17864367692528
aF257.7807930802253
aF275.613056365494
asg5
F0.7536514703745527
sg6
F0.3207299908828496
sg7
I89
sg8
F0.42227301663752126
sg9
F1.5646865182297562
sg10
F0.17258795012015107
sg11
F0.34571618874264093
saF-707.7732279500328
aa(lp246
(dp247
g3
(lp248
F-95.11358956672245
aF-62.780783919247824
aF-37.137465375744455
aF-34.45472689381006
aF-32.512512167915816
aF-26.723780489773617
aF41.48235291678975
aF127.64774417036188
aF276.1920765474795
aF575.9588192832498
asg5
F0.7699393877039006
sg6
F0.3207299908828496
sg7
I89
sg8
F0.01757680267253757
sg9
F1.5646865182297562
sg10
F0.1728589530897201
sg11
F0.34467014687035863
saF-195.03183886171473
aa(lp249
(dp250
g3
(lp251
F-104.25385633877579
aF-53.565255737528446
aF-34.55032543569996
aF-32.512512167915816
aF-26.723780489773617
aF-7.696489187117663
aF8.387855893186838
aF127.64774417036188
aF264.0378662946455
aF523.6898471793697
asg5
F0.7343107855894596
sg6
F0.3207299908828496
sg7
I93
sg8
F0.019363008854475696
sg9
F1.5646865182297562
sg10
F0.17230907988870584
sg11
F0.3456307975693934
saF-192.3694375120042
aa(lp252
(dp253
g3
(lp254
F-104.25385633877579
aF-62.780783919247824
aF-34.55032543569996
aF-32.512512167915816
aF-26.723780489773617
aF-7.696489187117663
aF29.07219654405685
aF127.64774417036188
aF264.0378662946455
aF523.6898471793697
asg5
F0.7611039984129833
sg6
F0.3207299908828496
sg7
I96
sg8
F0.01937160786988208
sg9
F1.5646865182297562
sg10
F0.172522640738423
sg11
F0.34571618874264093
saF-201.58496569372357
aa(lp255
(dp256
g3
(lp257
F-345.43679641628614
aF-294.89732248619737
aF-162.39045506545142
aF-141.49965884312587
aF-101.20540098593972
aF-94.38104872545307
aF-47.12949234343432
aF218.87283443397746
aF220.04673685856892
aF838.2064746089745
asg5
F0.7293577369675048
sg6
F0.3207299908828496
sg7
I103
sg8
F0.0193601425160069
sg9
F1.5646865182297562
sg10
F0.12015303642742739
sg11
F0.34569484094932906
saF-802.7245739679349
aa(lp258
(dp259
g3
(lp260
F-152.1270974990498
aF-128.0985293280812
aF-114.11765155565342
aF-56.19238613811831
aF2.831443462105767
aF7.62090006577489
aF23.328884344460334
aF56.164020809283784
aF62.659137249414016
aF177.90837047871628
asg5
F1.0
sg6
F0.3207299908828496
sg7
I53
sg8
F0.7742767427343817
sg9
F1.5646865182297562
sg10
F0.17231694715058204
sg11
F0.3460364056423192
saF-394.34327838278443
aa(lp261
(dp262
g3
(lp263
F-437.9308776381097
aF-375.1136330777057
aF-339.43389120455674
aF-306.41117063279114
aF-184.85927170490208
aF-65.29737574695707
aF13.098482521844517
aF79.82593164188575
aF304.7210659310524
aF1029.1994812165383
asg5
F0.7293577369675048
sg6
F0.3207299908828496
sg7
I93
sg8
F0.01936587519294449
sg9
F1.5646865182297562
sg10
F0.004028490869959023
sg11
F0.34535327625633894
saF-1152.478401920372
aa(lp264
(dp265
g3
(lp266
F-421.18114075799326
aF-329.41375924643353
aF-304.2408394706956
aF-225.80347658171786
aF-101.14683620644132
aF-40.70167698862679
aF163.4019569138336
aF189.18886877612408
aF404.28560809133114
aF736.8860025476356
asg5
F0.6663716704091556
sg6
F0.3207299908828496
sg7
I91
sg8
F0.0193601425160069
sg9
F1.5646865182297562
sg10
F0.17231694715058204
sg11
F0.07980145954963458
saF-1054.8357394751224
aa(lp267
(dp268
g3
(lp269
F-104.25385633877579
aF-53.565255737528446
aF-34.55032543569996
aF-32.512512167915816
aF-26.723780489773617
aF-7.696489187117663
aF8.387855893186838
aF139.15435380475355
aF264.0378662946455
aF523.6898471793697
asg5
F0.7392638342114144
sg6
F0.3207299908828496
sg7
I102
sg8
F0.0193601425160069
sg9
F1.5646865182297562
sg10
F0.17231694715058204
sg11
F0.3460364056423192
saF-192.3694375120042
aa(lp270
(dp271
g3
(lp272
F-416.93256838824846
aF-394.12127897431947
aF-292.15865747379416
aF-289.7515584086668
aF-263.3178547712573
aF-55.37922769875479
aF9.613119674199766
aF110.83374971873945
aF378.84501190435935
aF987.6225756743313
asg5
F0.7293577369675048
sg6
F0.3207299908828496
sg7
I91
sg8
F0.019363008854475696
sg9
F1.5646865182297562
sg10
F0.024263102114469137
sg11
F0.3460364056423192
saF-1103.212504836362
aa(lp273
(dp274
g3
(lp275
F-104.25385633877579
aF-53.565255737528446
aF-34.55032543569996
aF-32.512512167915816
aF-26.723780489773617
aF-7.696489187117663
aF8.387855893186838
aF139.15435380475355
aF264.0378662946455
aF523.6898471793697
asg5
F0.7341071322978252
sg6
F0.3207299908828496
sg7
I82
sg8
F0.0193601425160069
sg9
F1.5646865182297562
sg10
F0.172314980335113
sg11
F0.3460364056423192
saF-192.3694375120042
aa(lp276
(dp277
g3
(lp278
F-104.25385633877579
aF-53.565255737528446
aF-36.398494401403354
aF-34.55032543569996
aF-32.512512167915816
aF-7.696489187117663
aF8.387855893186838
aF127.64774417036188
aF264.0378662946455
aF523.6898471793697
asg5
F0.7293577369675048
sg6
F0.3207299908828496
sg7
I91
sg8
F0.0193601425160069
sg9
F1.5646865182297562
sg10
F0.17231301351964395
sg11
F0.34571618874264093
saF-194.2176064777076
aa(lp279
(dp280
g3
(lp281
F-283.4429244134327
aF-250.79276750997917
aF-222.75886555034174
aF-123.52071285622208
aF-6.612267700274288
aF61.97677773365922
aF95.3207855152607
aF247.31049973232234
aF370.7849279574509
aF708.2292007011299
asg5
F0.7319066036829756
sg6
F0.3207299908828496
sg7
I105
sg8
F0.0193601425160069
sg9
F1.5646865182297562
sg10
F0.17231694715058204
sg11
F0.13345159750528776
saF-756.9945574737536
aa(lp282
(dp283
g3
(lp284
F-417.96014150649637
aF-303.51825757390725
aF-278.134096571515
aF-152.79158740862886
aF-113.48151646040913
aF-1.1384456647032266
aF1.9163448004878774
aF99.7924238697351
aF506.7759470831263
aF544.2348886634556
asg5
F0.7293577369675048
sg6
F0.10755554891170643
sg7
I82
sg8
F0.0193601425160069
sg9
F1.5646865182297562
sg10
F0.17231694715058204
sg11
F0.34467014687035863
saF-999.6124956519186
aa(lp285
(dp286
g3
(lp287
F-435.53949352674056
aF-417.22704535831997
aF-367.13379738985066
aF-250.7868870560518
aF-239.3189336134941
aF-8.203056342761215
aF39.94823536235231
aF103.14775978526063
aF349.509108252179
aF999.2285712781568
asg5
F0.7293577369675048
sg6
F0.3207299908828496
sg7
I91
sg8
F0.01937160786988208
sg9
F1.5646865182297562
sg10
F0.05383855989493174
sg11
F0.34539597184296267
saF-1219.9003362749113
aa(lp288
(dp289
g3
(lp290
F-324.7999298096803
aF-296.6954333131255
aF-278.9223274260512
aF-261.4975035336697
aF-257.2294985064848
aF-143.46570213585267
aF32.56516342567966
aF86.93227936962808
aF232.426776336584
aF707.0865420224584
asg5
F1.0
sg6
F0.3207299908828496
sg7
I105
sg8
F0.7060529575441808
sg9
F2.8753523571987616
sg10
F0.17231694715058204
sg11
F0.34569484094932906
saF-900.417690548857
aa(lp291
(dp292
g3
(lp293
F-104.25385633877579
aF-53.565255737528446
aF-34.55032543569996
aF-32.512512167915816
aF-26.723780489773617
aF-17.71975697310677
aF8.387855893186838
aF127.64774417036188
aF264.0378662946455
aF591.4093959428933
asg5
F0.7388565276281456
sg6
F0.3207299908828496
sg7
I82
sg8
F0.0193601425160069
sg9
F1.5646865182297562
sg10
F0.17231694715058204
sg11
F0.34535327625633894
saF-192.3694375120042
aa(lp294
(dp295
g3
(lp296
F-104.25385633877579
aF-53.565255737528446
aF-36.398494401403354
aF-34.55032543569996
aF-32.512512167915816
aF-27.641779629942903
aF8.387855893186838
aF127.64774417036188
aF264.0378662946455
aF591.4093959428933
asg5
F0.7293577369675048
sg6
F0.3207299908828496
sg7
I91
sg8
F0.0193601425160069
sg9
F1.5646865182297562
sg10
F0.17231694715058204
sg11
F0.34467014687035863
saF-194.2176064777076
aa(lp297
(dp298
g3
(lp299
F-104.25385633877579
aF-73.63191199272762
aF-53.565255737528446
aF-36.398494401403354
aF-34.55032543569996
aF-7.696489187117663
aF8.387855893186838
aF139.15435380475355
aF264.0378662946455
aF523.6898471793697
asg5
F0.6663716704091556
sg6
F0.3207299908828496
sg7
I98
sg8
F0.018468472594272235
sg9
F1.5646865182297562
sg10
F0.17231694715058204
sg11
F0.3460364056423192
saF-231.45102406903186
aa(lp300
(dp301
g3
(lp302
F-104.25385633877579
aF-53.565255737528446
aF-34.55032543569996
aF-32.512512167915816
aF-26.723780489773617
aF-7.696489187117663
aF8.387855893186838
aF139.15435380475355
aF264.0378662946455
aF523.6898471793697
asg5
F0.7293577369675048
sg6
F0.3207299908828496
sg7
I87
sg8
F0.019138658204807632
sg9
F1.5646865182297562
sg10
F0.172314980335113
sg11
F0.3460364056423192
saF-192.3694375120042
aa(lp303
(dp304
g3
(lp305
F-266.44689161203223
aF-238.82399522624758
aF-219.35834845746183
aF-96.06454163674937
aF-18.062026084591366
aF50.607420039403905
aF110.00417676120355
aF233.4951627610485
aF546.8085437592345
aF828.3283829641498
asg5
F0.7365836566088027
sg6
F0.3207299908828496
sg7
I88
sg8
F0.018917173893608363
sg9
F1.5646865182297562
sg10
F0.17231694715058204
sg11
F0.1565124418789243
saF-724.6292352957416
aa(lp306
(dp307
g3
(lp308
F-104.25385633877579
aF-53.565255737528446
aF-34.55032543569996
aF-32.512512167915816
aF-26.723780489773617
aF-7.696489187117663
aF8.387855893186838
aF127.64774417036188
aF264.0378662946455
aF523.6898471793697
asg5
F0.7343107855894596
sg6
F0.3207299908828496
sg7
I92
sg8
F0.01936587519294449
sg9
F1.5646865182297562
sg10
F0.17231694715058204
sg11
F0.34571618874264093
saF-192.3694375120042
aa.